(lp0
(dp1
S'TimeTags'
p2
(lp3
S'Afternoon'
p4
aS'Night'
p5
asS'description'
p6
S"An improvisational comedy theatre troupe,  Second City's talented cast creates original sketches for adult audiences."
p7
sS'img'
p8
S'https://irs0.4sqi.net/img/general/500x300/29814577_qZ_qUmULYRP0PasmeG3DWWJyycNwEupmKTyTRVFMVOM.jpg'
p9
sS'tags'
p10
(lp11
S'Comedy'
p12
aS''
p13
ag13
asS'url'
p14
S'http://www.secondcity.com'
p15
sS'iconic'
p16
I1
sS'name'
p17
S'Second City'
p18
sa(dp19
g2
(lp20
S'Afternoon'
p21
aS'Night'
p22
asg6
S'UP Comedy club is a cabaret-style club that features live stand-up,  sketch comedy & improv,  plus cocktails & a full dinner menu.'
p23
sg8
S'https://irs0.4sqi.net/img/general/500x300/4502435_DQYve-vOjJLjmfo6YseYtC-Acies_O3ufVH9Cv4bOvc.jpg'
p24
sg10
(lp25
S'Comedy'
p26
ag13
ag13
asg14
S'No Url'
p27
sg16
I0
sg17
S'Up Comedy Club'
p28
sa(dp29
g2
(lp30
S'Afternoon'
p31
aS'Night'
p32
asg6
S'The Laugh Factory is a comedy club for seasoned & emerging stand-up acts,  plus surprise celebrity guests.'
p33
sg8
S'https://irs0.4sqi.net/img/general/500x300/426443_89_Lgp0spmZDqFl6fq0iUtNgabg41qbr_-orLkTnSEA.jpg'
p34
sg10
(lp35
S'Comedy'
p36
ag13
ag13
asg14
g27
sg16
I0
sg17
S'Laugh Factory'
p37
sa(dp38
g2
(lp39
S'Afternoon'
p40
aS'Night'
p41
asg6
S'Since 1978,  Zanies regularly brings in top Comedians from all around the country. The comedy club changes its roster weekly,  which allows for endless fun.'
p42
sg8
S'https://irs0.4sqi.net/img/general/500x300/6717479_-P7fstQjVYbj0NMbEG5J2GHpOKWZkfMGQHGq2FSsZbI.jpg'
p43
sg10
(lp44
S'Comedy'
p45
ag13
ag13
asg14
S'http://www.zanies.com'
p46
sg16
I0
sg17
S'Zanies'
p47
sa(dp48
g2
(lp49
S'Afternoon'
p50
aS'Night'
p51
asg6
S'IO Chicago is a warehouselike hangout inside the comedy club that serves up specialty cocktails and an array of plates.'
p52
sg8
S'https://irs0.4sqi.net/img/general/500x300/83434151_FTAE-FWMfrdMBcJYjcsJUudxO4AbN3uzxigkB65-i1E.jpg'
p53
sg10
(lp54
S'Comedy'
p55
ag13
ag13
asg14
S'http://www.mrhandyman.com/local-handyman-service/il/northern-chicago.aspx'
p56
sg16
I0
sg17
S'IO Chicago'
p57
sa(dp58
g2
(lp59
S'Afternoon'
p60
aS'Night'
p61
asg6
S'Jokes & Notes is a 150-seat club fully equiped with a bar,  banquettes,  and TVs that provides a hip feel to those who love to laugh and drink in the same place.'
p62
sg8
S'https://irs0.4sqi.net/img/general/500x300/866819_4xmUPWUA2HAjWBX55wzHCdLrkeq8IhF1nkn2U9lURDI.jpg'
p63
sg10
(lp64
S'Comedy'
p65
ag13
ag13
asg14
S'http://jokesandnotes.com'
p66
sg16
I0
sg17
S'Jokes & Notes'
p67
sa(dp68
g2
(lp69
S'Afternoon'
p70
aS'Night'
p71
asg6
S"ComedySportz Chicago is a hilarious improv show where teams are made to create scenes,  games,  and songs on the spot! The audience chooses the winner,  and it's fun for the whole family."
p72
sg8
S'https://irs0.4sqi.net/img/general/500x300/64627023_n5nIEz8Tdn9vSlff9_RY9DtqKO3VQ1HUr4r0qrfF7K0.jpg'
p73
sg10
(lp74
S'Comedy'
p75
ag13
ag13
asg14
S'http://www.comedysportzchicago.com'
p76
sg16
I0
sg17
S'ComedySportz'
p77
sa(dp78
g2
(lp79
S'Afternoon'
p80
aS'Night'
p81
asg6
S'The Comedy Bar is a classic comedy venue in the heart of Chicago,  and has been named as one of the Best Comedy Clubs in Chicago by the Chicago magazine.'
p82
sg8
S'https://irs0.4sqi.net/img/general/500x300/33219534_KpU_ZvprDXJkW_ZBNtUpDMwdaLIbQnWjYyn8jj2p_oU.jpg'
p83
sg10
(lp84
S'Comedy'
p85
ag13
ag13
asg14
S'http://comedybarchicago.com'
p86
sg16
I0
sg17
S'The Comedy Bar'
p87
sa(dp88
g2
(lp89
S'Afternoon'
p90
aS'Night'
p91
asg6
S'Established in 1990,  Riddles Comedy Club has hosted a wide variety of hilarious comics such as Drew Carey,  Martin Lawrence,  and Ellen DeGeneres,  among others. With a full-service bar and accessible free parking,  Riddles is a great place to have a nice night out with friends.'
p92
sg8
S'https://irs0.4sqi.net/img/general/500x300/dGX7DFAwD7eS1xCw2BAb96A3oz8or8_XsnPZit8VrT8.jpg'
p93
sg10
(lp94
S'Comedy'
p95
ag13
ag13
asg14
S'http://www.myriddlescomedyclub.com'
p96
sg16
I0
sg17
S'Riddles Comedy Club'
p97
sa(dp98
g2
(lp99
S'Afternoon'
p100
aS'Night'
p101
asg6
S'The Annnoyance Theater creates some of the finest comedic acts in Chicago and has its root in the art of improvisation. Besides its bar,  the Annoyance Theater has space for improv classes in order to hone your comedic chops.'
p102
sg8
S'https://irs0.4sqi.net/img/general/500x300/EknMFYpACHsRgWXybvmQwypOCSxRS7FKz6AQs7_cBew.jpg'
p103
sg10
(lp104
S'Comedy'
p105
ag13
ag13
asg14
S'http://www.annoyancetheater.com'
p106
sg16
I0
sg17
S'The Annoyance Theater and Bar'
p107
sa(dp108
g2
(lp109
S'Night'
p110
ag13
asg6
S'Lincoln Hall is a beautiful venue where great shows and great food come together to create a wonderful experience. Their courteous staff allows for an enjoyable night out.'
p111
sg8
S'https://irs0.4sqi.net/img/general/500x300/32357783_iNt9wA3f5quCd6upzKZuBdqmqF993X-rlGc4FmrZmMk.jpg'
p112
sg10
(lp113
S'Music'
p114
aS'Food'
p115
aS'Bar'
p116
asg14
S'http://www.harmonygrill.com'
p117
sg16
I0
sg17
S'Lincoln Hall'
p118
sa(dp119
g2
(lp120
S'Night'
p121
ag13
asg6
S"Kingston Mines is one of Chicago's oldest and largest blues joints where concerts and dancing don't stop until the early morning."
p122
sg8
S'https://irs0.4sqi.net/img/general/500x300/44736170_awU11hO87znkg8m01hS1W0oCr6xc-XmUTdWckB0EB4w.jpg'
p123
sg10
(lp124
S'Music'
p125
aS'Bar'
p126
ag13
asg14
g27
sg16
I0
sg17
S'Kingston Mines'
p127
sa(dp128
g2
(lp129
S'Night'
p130
ag13
asg6
S"The Riviera Theatre is a concert venue popular for both local and national acts'"
p131
sg8
S'http://www.nateazark.com/wp-content/uploads/iron-and-wine-riviera-20.jpg'
p132
sg10
(lp133
S'Music'
p134
ag13
ag13
asg16
I0
sg17
S'The Riviera'
p135
sa(dp136
g2
(lp137
S'Night'
p138
ag13
asg6
S"Andy's Jazz Club is one of Chicago's best known jazz clubs,  where smooth music is paired with a classic menu of Chicago's top Jazz artists. The club features local performers as well as world-class musicians from around the world in a beautiful,  intimate space in the city."
p139
sg8
S'https://irs0.4sqi.net/img/general/500x300/827863_-ccgFSn8W8kHUZD0Bk9jjk9rBOvC_w6Q-UTqpDrjakA.jpg'
p140
sg10
(lp141
S'Music'
p142
aS'Bar'
p143
ag13
asg14
S'http://www.andysjazzclub.com'
p144
sg16
I0
sg17
S"Andy's Jazz Club"
p145
sa(dp146
g2
(lp147
S'Night'
p148
ag13
asg6
S'The Green Mill Cocktail Lounge is a sophisticated bar that features all types of Jazz music,  including ""traditional,  bebop,  contemporary,  and improvisational."" Nightly shows provide endless entertainment to the Green Mill-goer.'
p149
sg8
S'https://irs0.4sqi.net/img/general/500x300/229589_1iXkt2aPdkreBrwA60tazzo5GPKZs4n1kdXjx6QFAxI.jpg'
p150
sg10
(lp151
S'Music'
p152
aS'Bar'
p153
ag13
asg14
S'http://greenstreetmeats.com'
p154
sg16
I1
sg17
S'Green Mill'
p155
sa(dp156
g2
(lp157
S'Night'
p158
ag13
asg6
S"The Aragon Ballroom is a concert venue & event paced designed to replicate an ornate Spanish palace courtyard'"
p159
sg8
S'https://irs0.4sqi.net/img/general/500x300/1142943_08uk67tBtDDlDfcxEXWSMxdr8qlVtkWFqtqhHuyTWLg.jpg'
p160
sg10
(lp161
S'Music'
p162
ag13
ag13
asg14
S'http://www.aragon.com'
p163
sg16
I0
sg17
S'Aragon Ballroom'
p164
sa(dp165
g2
(lp166
S'Night'
p167
ag13
asg6
S'Owned by Lonie Walker and established in 1989,  this bar features live performances,  great food,  and fun drinks for any Chicagoan. With 3 stages and 2 bars,  the Underground Wonder Bar provides a unique and diverse experience to its guests.'
p168
sg8
S'https://irs0.4sqi.net/img/general/500x300/11719619_2ldHF_aGOz7AvIwOhL7l1o2X9bd7VtLti22iV444FSw.jpg'
p169
sg10
(lp170
S'Music'
p171
aS'Bar'
p172
ag13
asg14
S'http://www.undergroundwonderbar.com'
p173
sg16
I0
sg17
S'The Underground Wonderbar'
p174
sa(dp175
g2
(lp176
S'Night'
p177
ag13
asg6
S'The M lounge has an intimate feel with soft candles and blue lighting that accentuate the drinking experience. The South Loop location features live music twice a week and have a wide range of musical acts,  from jazz to blue to R&B.'
p178
sg8
S'https://irs0.4sqi.net/img/general/500x300/44995152_W2BTc0Ouy4LDTX9UnXNTCMt1-kng28inKFsW_Cqetkg.jpg'
p179
sg10
(lp180
S'Music'
p181
aS'Bar'
p182
ag13
asg14
S'http://www.mloungechicago.com'
p183
sg16
I0
sg17
S'M Lounge'
p184
sa(dp185
g2
(lp186
S'Night'
p187
ag13
asg6
S'A hit in the 60s and 70s,  The Backroom Club remains a popular spot for bargoers today to enjoy a good drink while listening to alternative/hybrid music.'
p188
sg8
S'https://pbs.twimg.com/profile_images/3406738944/c7ffb7022846e6cf2aa6a86d2486ab5d.jpeg'
p189
sg10
(lp190
S'Music'
p191
aS'Bar'
p192
ag13
asg16
I0
sg17
S'The Backroom'
p193
sa(dp194
g2
(lp195
S'Night'
p196
ag13
asg6
S'One of the best dive bars in the city in the heart of Old Town. This cozy,  laid-back spot has a storied past,  funky art and a jukebox for customers to pick the tunes. Cash only.'
p197
sg8
S'https://irs0.4sqi.net/img/general/500x300/WK6paT6nOobTzMov9UvdGJ21FXe5FIBYVQr2oP9lDoA.jpg'
p198
sg10
(lp199
S'Bar'
p200
ag13
ag13
asg14
S'http://www.theoldtownalehouse.com'
p201
sg16
I0
sg17
S'Old Town Ale House'
p202
sa(dp203
g2
(lp204
S'Night'
p205
ag13
asg6
S"Founded in 2010 in the Logan Square neighborhood,  Revolution is one of the city's top craft breweries. Visitors can catch a brewery tour and taste some samples at the taproom Wednesday through Sunday or head to Revolution's Brewpub about a 1.5 mile away for beers and pub fare."
p206
sg8
S'https://irs0.4sqi.net/img/general/500x300/A8LQimmmRYaI6BdsNrEehLrAz_ausI3aL76K3rQ-lsA.jpg'
p207
sg10
(lp208
S'Bar'
p209
ag13
ag13
asg14
S'http://revbrew.com'
p210
sg16
I0
sg17
S'Revolution Brewing'
p211
sa(dp212
g2
(lp213
S'Night'
p214
ag13
asg6
S"Owned and operated by famed chef Grant Achatz,  this swanky West Loop lounge gives some serious attention to cocktails. While it does take walk-ins,  it's better to purchase tickets for a reservation in advance."
p215
sg8
S'http://nowyouknowevents.com/wp-content/uploads/2013/05/url4.jpg'
p216
sg10
(lp217
S'Bar'
p218
ag13
ag13
asg16
I0
sg17
S'The Aviary'
p219
sa(dp220
g2
(lp221
S'Night'
p222
ag13
asg6
S"A travel-themed bar in Bucktown with 26 taps and over 100 bottles of beer from around the world to choose from. It's a neighborhood favorite that also features a morning coffee menu."
p223
sg8
S'https://irs0.4sqi.net/img/general/500x300/33190_covj74VCsDqMpow2r2GK83y5iGD5GqOOqHnHGgaIPsk.jpg'
p224
sg10
(lp225
S'Bar'
p226
ag13
ag13
asg14
S'http://maproom.com'
p227
sg16
I1
sg17
S'The Map Room'
p228
sa(dp229
g2
(lp230
S'Night'
p231
ag13
asg6
S'A beer-centric neighborhood spot in Andersonville that speacializes in Belgian-focused eats,  including their famous mussels and frites.'
p232
sg8
S'https://irs0.4sqi.net/img/general/500x300/35873760_k0IEjwo3zTLNhia5-vRgzh7L8FKJLafH1H6CV2yc_l8.jpg'
p233
sg10
(lp234
S'Bar'
p235
ag13
ag13
asg14
S'http://hopleaf.com'
p236
sg16
I1
sg17
S'Hopleaf '
p237
sa(dp238
g2
(lp239
S'Night'
p240
ag13
asg6
S"This James Beard Award-winning bar features a seasonally rotating cocktail list in an elegant,  modern setting in Chicago's Wicker Park neighborhood."
p241
sg8
S'https://irs0.4sqi.net/img/general/500x300/183237_bAyfIIgVYYl7Dj0CQVweWjno3F2Ax_zuXm_qmwkYc2E.jpg'
p242
sg10
(lp243
S'Bar'
p244
ag13
ag13
asg14
S'http://theviolethour.com'
p245
sg16
I1
sg17
S'Violet Hour'
p246
sa(dp247
g2
(lp248
S'Night'
p249
ag13
asg6
S'Founded by the beverage director of Three Dots & a Dash,  Lost Lake is a cocktail bar on the border of Avondale and Logan Square that boosts a tiki theme. Specializing in tropical drinks,  guests can also order Chinese take-out from next door.'
p250
sg8
S'https://irs0.4sqi.net/img/general/500x300/3308863_YBgDnUEflCZszvoZn8fjZjSRYI502ZHHlYnnXDp7LKE.jpg'
p251
sg10
(lp252
S'Bar'
p253
ag13
ag13
asg14
S'http://lostlaketiki.com'
p254
sg16
I0
sg17
S'Lost Lake'
p255
sa(dp256
g2
(lp257
S'Night'
p258
ag13
asg6
S'Guests can find old-school arcade games,  craft beer and signature cocktails at both of the locations in Lakeview and River North neighborhoods.'
p259
sg8
S'https://irs0.4sqi.net/img/general/500x300/78228849_Eh2rfDl_rZlv4baRIWvWGsEmt3zdwm2LrbfcXr7A1QU.jpg'
p260
sg10
(lp261
S'Bar'
p262
ag13
ag13
asg14
S'http://hqbeercade.com/rivernorth'
p263
sg16
I0
sg17
S'Headquarters Beercade'
p264
sa(dp265
g2
(lp266
S'Night'
p267
ag13
asg6
S'A lively punk rock bar that features DJs spinning a variety of music,  including Rock & Roll,  Punk Rock,  Metal,  Ska & Reggae,  Soul,  R&B and Hard Country. It has more than 750 varities of whiskies,  and plays host to regular art openings,  film screenings & beer tastings as well.'
p268
sg8
S'http://emilyrapport.com/newartpress/wp-content/uploads/2012/02/delilahs-snow.jpg'
p269
sg10
(lp270
S'Bar'
p271
aS'Music'
p272
ag13
asg16
I0
sg17
S"Delilah's"
p273
sa(dp274
g2
(lp275
g13
ag13
asg6
S'Voted as having the Best Pancakes in Chicago,  WildBerry Pancakes is a great breakfast joint that serves classic breakfast options as well as fresh lunch dishes. The establishment prides itself in serving local farm fresh ingredients and baking its own bread.'
p276
sg8
S'https://irs0.4sqi.net/img/general/500x300/2921863_7kRQxu0ZwTb9MEPY8_CXZgiQZmUPqKZAszm2NDZVz7A.jpg'
p277
sg10
(lp278
S'Food'
p279
aS'Lunch'
p280
ag13
asg14
S'http://wildberrycafe.com'
p281
sg16
I0
sg17
S'Wildberry Pancakes & Cafe'
p282
sa(dp283
g2
(lp284
g13
ag13
asg6
S'This neighborhood cafe in Wicker Park features a rotating menu of seasonal items in a casual,  inviting environment.'
p285
sg8
S'https://irs0.4sqi.net/img/general/500x300/45487_wPpfO4MOFwxtTrYauuNYqas_K61Wmg7b_HFABxTbyks.jpg'
p286
sg10
(lp287
S'Food'
p288
aS'Lunch'
p289
ag13
asg14
S'http://birchwoodkitchen.com'
p290
sg16
I0
sg17
S'Birchwood Kitchen'
p291
sa(dp292
g2
(lp293
g13
ag13
asg6
S'This cozy Ravenswood eatery offers a variety of unique breakfast,  lunch and brunch options.'
p294
sg8
S'http://www.pointsoflight.org/sites/default/files/wp-content/uploads/2012/05/over-easy-cafe.jpg'
p295
sg10
(lp296
S'Food'
p297
aS'Lunch'
p298
ag13
asg16
I0
sg17
S'Over Easy Cafe'
p299
sa(dp300
g2
(lp301
g13
ag13
asg6
S'Yolk is a fun breakfast joint that experiments with creative breakfasts,  specialty juices,  and its own label of premium coffee. Its appeal to the urban social scene has allowed the restaurant to shake up the breakfast and lunch scene.'
p302
sg8
S'https://irs0.4sqi.net/img/general/500x300/78228849_Eh2rfDl_rZlv4baRIWvWGsEmt3zdwm2LrbfcXr7A1QU.jpg'
p303
sg10
(lp304
S'Food'
p305
aS'Lunch'
p306
ag13
asg14
S'http://hqbeercade.com/rivernorth'
p307
sg16
I0
sg17
S'Yolk River North'
p308
sa(dp309
g2
(lp310
g13
ag13
asg6
S'A rustic BYOB neighborhood joint in Ukrainian Village featuring American comfort food for breakfast until late night.'
p311
sg8
S'https://irs0.4sqi.net/img/general/500x300/1326173_r6Hed5T5a4n8fDwqz7_szn499Ww2rV6E25rs1Cl9xjg.jpg'
p312
sg10
(lp313
S'Food'
p314
aS'Lunch'
p315
ag13
asg14
S'http://www.emptybottle.com/bite.htm'
p316
sg16
I0
sg17
S'Bite Cafe'
p317
sa(dp318
g2
(lp319
g13
ag13
asg6
S'Located right on the Chicago River,  this casual restaurant offers a range of comfort food and a great view of downtown Chicago.'
p320
sg8
S'https://irs0.4sqi.net/img/general/500x300/ktBZdeWC7ttGviXKa08NUpTXQFuPxzkCZSmLmyYXCA0.jpg'
p321
sg10
(lp322
S'Food'
p323
aS'Lunch'
p324
ag13
asg14
S'http://www.bridgehousetavern.com'
p325
sg16
I0
sg17
S'Bridge House Tavern'
p326
sa(dp327
g2
(lp328
g13
ag13
asg6
S'Established in 2012,  this gourmet donut shop has expanded to six locations in the city. Choose from classic flavors like the Old Fashioned to more unique offerings,  such as Key Lime Pie.'
p329
sg8
S'http://foodbabbles.files.wordpress.com/2011/06/glazed-doughnuts-13.jpg'
p330
sg10
(lp331
S'Food'
p332
aS'Lunch'
p333
ag13
asg16
I0
sg17
S'Glazed & Infused'
p334
sa(dp335
g2
(lp336
g13
ag13
asg6
S"Metropolis Coffee Company is one of Chicago's top small batch artisan coffee roasters. Its Edgewater cafe is a neighborhood favorite,  and features fresh-roasted coffees,  pastries and sandwiches."
p337
sg8
S'https://irs0.4sqi.net/img/general/500x300/a8-jqPKGpx06RLUiyhokZjULyqEqwZwG0yGqAjsboRI.jpg'
p338
sg10
(lp339
S'Food'
p340
aS'Lunch'
p341
ag13
asg14
g27
sg16
I0
sg17
S'Metropolis Coffee Company'
p342
sa(dp343
g2
(lp344
g13
ag13
asg6
S'A cozy BYOB breakfast and lunch spot in Lakeview that also features a coffee and pastry counter.'
p345
sg8
S'http://cdn.sneakernews.com/wp-content/uploads/2014/04/nike-air-bakin-grey-black-teal-011-570x380.jpg'
p346
sg10
(lp347
S'Food'
p348
aS'Lunch'
p349
ag13
asg16
I0
sg17
S'Bakin & Eggs'
p350
sa(dp351
g2
(lp352
g13
ag13
asg6
S'Open 24 hours,  this casual dining spot is the perfect place to grab breakfast,  lunch or dinner anytime of the day.'
p353
sg8
S'https://irs0.4sqi.net/img/general/500x300/42502301_6cnsBshqKbnt8C4FiHfr_FEGQQZ95Qf1s4oAnNwbCu8.jpg'
p354
sg10
(lp355
S'Food'
p356
aS'Lunch'
p357
ag13
asg14
S'http://ellyspancakehouse.com'
p358
sg16
I0
sg17
S'Ellys Pancake House'
p359
sa(dp360
g2
(lp361
g13
ag13
asg6
S'With a menu inspired by Mexican street food,  this is one of the best places in the city to grab tacos and margaritas. This fun,  lively Wicker Park joint is open late night and is cash only.'
p362
sg8
S'https://maggieonthemove.files.wordpress.com/2011/12/l1000709.jpg'
p363
sg10
(lp364
S'Food'
p365
aS'Lunch'
p366
ag13
asg16
I0
sg17
S'Big Star'
p367
sa(dp368
g2
(lp369
g13
ag13
asg6
S"Opened in 1934,  the Billy Goat Tavern is a Chicago classic. The no-frills spot offers simple diner fare,  but is famous for its 'cheezborger."
p370
sg8
S'https://irs0.4sqi.net/img/general/500x300/4404322_AeXyc4FyvJk40cSFJFnQ0AD_rLx-NipX-pXoBaQjH7M.jpg'
p371
sg10
(lp372
S'Food'
p373
aS'Lunch'
p374
ag13
asg14
S'http://www.billygoattavern.com'
p375
sg16
I0
sg17
S'Billy Goat Tavern'
p376
sa(dp377
g2
(lp378
g13
ag13
asg6
S'Deemed one of Chicago\xe2\x80\x99s best bakeries,  this Lincoln Park shop offers a rotating menu of French pastries,  bread,  sandwiches and salads. A perfect spot to grab breakfast or lunch.'
p379
sg8
S'https://irs0.4sqi.net/img/general/500x300/jESB27oNPf1QnRRgE4Gt4eu7us9AF2T-7q8sww7HenE.jpg'
p380
sg10
(lp381
S'Food'
p382
aS'Lunch'
p383
ag13
asg14
S'http://www.floriole.com'
p384
sg16
I0
sg17
S'Floriole Cafe and Bakery'
p385
sa(dp386
g2
(lp387
g13
ag13
asg6
S'With two locations in Wicker Park and Logan Square,  this bar has nearly 40 arcade games,  two dozen rotating craft beers and over 50 whiskeys. The Logan Square spot also has pool tables.'
p388
sg8
S'https://irs0.4sqi.net/img/general/500x300/r89q4OJyOFOWDX9lFHEYi-AlGPIQcI2d_OoBUEjGKq4.jpg'
p389
sg10
(lp390
S'Food'
p391
aS'Lunch'
p392
ag13
asg14
S'http://www.emporiumchicago.com'
p393
sg16
I0
sg17
S'Emporium'
p394
sa(dp395
g2
(lp396
g13
ag13
asg6
S'Founded in 1950,  this fried chicken chain is a Chicago favorite. There are multiple locations throughout the city,  but each serves some of the best fried chicken with signature sauces.'
p397
sg8
S'https://irs0.4sqi.net/img/general/500x300/xut43BH9mwW-IqVW1oq9sAFh1bcVjxHJUdw-9KPmk2E.jpg'
p398
sg10
(lp399
S'Food'
p400
aS'Lunch'
p401
ag13
asg14
g27
sg16
I0
sg17
S'Harolds Chicken Shack'
p402
sa(dp403
g2
(lp404
g13
ag13
asg6
S'A trip to Chicago\xe2\x80\x99s \xe2\x80\x9cLittle India\xe2\x80\x9d will be well worth it. Udupi is one of the many gems on Devon Avenue that specializes in southern Indian dishes and is perfect for the traditionalist. Vegetarian dishes only.'
p405
sg8
S'https://irs0.4sqi.net/img/general/500x300/104922_a7S0rG98o27srFD8RiVYp5eQNhFHNvJq7hSuUqBlcsE.jpg'
p406
sg10
(lp407
S'Food'
p408
aS'Lunch'
p409
ag13
asg14
S'http://www.udupipalace.com'
p410
sg16
I0
sg17
S'Udupi Palace'
p411
sa(dp412
g2
(lp413
g13
ag13
asg6
S'Located just south of the Lincoln Park Zoo,  the Patio serves casual fare in an al fresco setting. Overlooking the pond at Nature Boardwalk,  it offers unparalleled views of the zoo and the Chicago skyline.'
p414
sg8
S'https://irs0.4sqi.net/img/general/500x300/35384_G9ZlY8W81Eyor2vgeNrCMgRX822tVjpzcm2hxN6FcD0.jpg'
p415
sg10
(lp416
S'Food'
p417
aS'Lunch'
p418
ag13
asg14
g27
sg16
I0
sg17
S'The Patio at Cafe Brauer'
p419
sa(dp420
g2
(lp421
g13
ag13
asg6
S"This is one of the best spots to grab a drink or quick-bite during the summer months. The outdoor restaurant and bar is located along the lake,  and offers some of the best views of Chicago's downtown and beaches."
p422
sg8
S'https://irs0.4sqi.net/img/general/500x300/9281492_XJaMrdiSvcNZQz8ZV-rEEOwaA_pVLYTgeR8kM-9wvbA.jpg'
p423
sg10
(lp424
S'Food'
p425
aS'Lunch'
p426
ag13
asg14
S'http://oakstreetbeach.com'
p427
sg16
I0
sg17
S'Oak Street Beach Food & Drink'
p428
sa(dp429
g2
(lp430
g13
ag13
asg6
S'This specialty foods grocery store is also a great spot for breakfast or lunch. The casual Lakeview cafe offers simple,  modern comfort food.'
p431
sg8
S'https://irs0.4sqi.net/img/general/500x300/BVxZ6ztuIIag9DC2fh0QZh_emsnuPrLH6ObUQP_V0i4.jpg'
p432
sg10
(lp433
S'Food'
p434
aS'Lunch'
p435
ag13
asg14
S'http://www.southportgrocery.com'
p436
sg16
I0
sg17
S'Southport Grocery & Caf\xc3\xa9'
p437
sa(dp438
g2
(lp439
g13
ag13
asg6
S"One of Chicago's most revered 'farm-to-table' restaurants for more than 15 years,  this Logan Square restaurant is a laid-back,  local favorite."
p440
sg8
S'https://irs0.4sqi.net/img/general/500x300/10040204_KdgyuPNRptApFJbqiH_tE6n1AXNcZD8WnEt4G9r8XtU.jpg'
p441
sg10
(lp442
S'Food'
p443
aS'Dinner'
p444
ag13
asg14
S'http://lulacafe.com'
p445
sg16
I0
sg17
S'Lula Cafe'
p446
sa(dp447
g2
(lp448
g13
ag13
asg6
S"Famed Chicago chef Paul Kahan's flagship restaurant,  this elegant,  fine-dining establishment highlights local,  farm-fresh ingredients."
p449
sg8
S'https://irs0.4sqi.net/img/general/500x300/zkU04KVyvgCpEwuhmw4eCNftRX7T91f7pjkpJMjlhqA.jpg'
p450
sg10
(lp451
S'Food'
p452
aS'Dinner'
p453
ag13
asg14
S'http://blackbirdrestaurant.com'
p454
sg16
I0
sg17
S'Blackbird'
p455
sa(dp456
g2
(lp457
g13
ag13
asg6
S'Established in 2010,  this Logan Square spot has quickly become a destination for ramen lovers.'
p458
sg8
S'https://irs0.4sqi.net/img/general/500x300/2333877_XkcoUQwbJBj-7CyLABzRB9njOCU8QucYdDu1-u_6JPE.jpg'
p459
sg10
(lp460
S'Food'
p461
aS'Dinner'
p462
ag13
asg14
S'http://www.wasabichicago.com'
p463
sg16
I0
sg17
S'Wasabi'
p464
sa(dp465
g2
(lp466
g13
ag13
asg6
S'This Andersonville restaurant features seasonally-inspired,  rustic Italian dishes in a cozy setting.'
p467
sg8
S'https://irs0.4sqi.net/img/general/500x300/15475244_tnICpMYkDJzWK2OLqRqj3UuxZPfQ667-MnhOoMryPNM.jpg'
p468
sg10
(lp469
S'Food'
p470
aS'Dinner'
p471
ag13
asg14
S'http://anteprimachicago.net'
p472
sg16
I0
sg17
S'Anteprima'
p473
sa(dp474
g2
(lp475
g13
ag13
asg6
S'Chicago is known for its deep-dish pizza and this is one of its bests. This casual pub is a local favorite,  and is open late night.'
p476
sg8
S'https://irs0.4sqi.net/img/general/500x300/7717326_x2K-ZgnEwuhdbge2gCS9BhMNjlZHBmtEsgMYZgqqv_w.jpg'
p477
sg10
(lp478
S'Food'
p479
aS'Dinner'
p480
ag13
asg14
S'http://pequodspizza.com'
p481
sg16
I1
sg17
S'Pequods'
p482
sa(dp483
g2
(lp484
g13
ag13
asg6
S'Located within the grounds of Lincoln Park,  North Pond specializes in dishes that highlight local and seasonal fare.'
p485
sg8
S'http://www.d2dphotos.com/wp-content/uploads/2011/04/North-Pond-6208.jpg'
p486
sg10
(lp487
S'Food'
p488
aS'Dinner'
p489
ag13
asg16
I0
sg17
S'North Pond'
p490
sa(dp491
g2
(lp492
g13
ag13
asg6
S"Located in the heart of Pilsen's art district,  this rustic,  modern restaurant serves some of the best seasonally-inspired cuisine in the city."
p493
sg8
S'https://irs0.4sqi.net/img/general/500x300/SPEOA1I0JULXYCLMJSISTQQBOBLJJK2M2QAC3K4U2IYQWTI2.jpg'
p494
sg10
(lp495
S'Food'
p496
aS'Dinner'
p497
ag13
asg14
S'http://www.nightwoodrestaurant.com'
p498
sg16
I0
sg17
S'Nightwood'
p499
sa(dp500
g2
(lp501
g13
ag13
asg6
S'A trendy,  upscale restaurant by reality TV stars Bill & Giuliana Rancic. The River North spot,  which offers modern Italian fare,  is a place to see and be seen.'
p502
sg8
S'https://irs0.4sqi.net/img/general/500x300/39250903_AjV410yxnCKDZ3MwREujrfiCpM5fovqYprvyiZDOyxs.jpg'
p503
sg10
(lp504
S'Food'
p505
aS'Dinner'
p506
ag13
asg14
S'http://rpmitalian.com'
p507
sg16
I0
sg17
S'RPM Italian'
p508
sa(dp509
g2
(lp510
g13
ag13
asg6
S'An upscale diner in Chicago\xe2\x80\x99s West Loop offering dishes from omelettes to foie gras. Its cheeseburger,  however,  is known as one of the best in the city.'
p511
sg8
S'http://chicago.grubstreet.com/upload/2012/11/check_out_au_chevals_english_c/20121129_electric_diner_560x372.jpg'
p512
sg10
(lp513
S'Food'
p514
aS'Dinner'
p515
ag13
asg16
I0
sg17
S'Au Cheval'
p516
sa(dp517
g2
(lp518
S'Afternoon'
p519
ag13
asg6
S'If you want to see the Bulls or the Blackhawks,  you\xe2\x80\x99ll need to make a trip to this sprawling Near West Side sports arena. When it\xe2\x80\x99s not hosting hockey or basketball,  it\xe2\x80\x99s the venue of choice for gigantic touring acts like Beyonc\xc3\xa9 and Lady Gaga.'
p520
sg8
S'https://irs0.4sqi.net/img/general/500x300/686218_D0OLJPR4QzopU12fCKvd6DabeDP-BHhyL3YQeDLWKGo.jpg'
p521
sg10
(lp522
S'Sports'
p523
ag13
ag13
asg14
S'http://www.unitedcenter.com'
p524
sg16
I0
sg17
S'United Center'
p525
sa(dp526
g2
(lp527
S'Afternoon'
p528
ag13
asg6
S"Located on Chicago's south side,  U.S. Cellular Field is home to the 2005 World Series Champions,  the Chicago White Sox. More modern and spacious than Wrigley,  it also offers creative stadium fare like bacon on a stick and chicken and waffle sandwiches."
p529
sg8
S'https://irs0.4sqi.net/img/general/500x300/34316401_7gLrzg4hc98xUIlv6ujLR3cIe_irzPBTo5TFn4s88GM.jpg'
p530
sg10
(lp531
S'Sports'
p532
ag13
ag13
asg14
S'http://mlb.com'
p533
sg16
I0
sg17
S'US Cellular Field'
p534
sa(dp535
g2
(lp536
S'Afternoon'
p537
ag13
asg6
S'During football season,  Soldier Field is the perfect place to tailgate and catch a game. Opened in 1924,  it is the oldest NFL stadium. During the offseason,  it serves as one of Chicago\xe2\x80\x99s largest concert venues.'
p538
sg8
S'https://irs0.4sqi.net/img/general/500x300/39692369_UBi0AnfZOo7Gg_7JmkQI_n1eb4X9IKzEt_sqJo9PUlg.jpg'
p539
sg10
(lp540
S'Sports'
p541
ag13
ag13
asg14
S'http://www.soldierfield.net'
p542
sg16
I0
sg17
S'Soldier Field'
p543
sa(dp544
g2
(lp545
S'Afternoon'
p546
ag13
asg6
S'Located on Chicago\xe2\x80\x99s northside,  Wrigley Field is the second-oldest major league ballpark and has been the home to the Cub\xe2\x80\x99s for 99 seasons. The surrounding neighborhood known as \xe2\x80\x9cWrigleyville\xe2\x80\x9d offers sports fans a variety of restaurants and bars.'
p547
sg8
S'http://upload.wikimedia.org/wikipedia/commons/1/18/Wrigley_Field_configured_for_soccer.jpg'
p548
sg10
(lp549
S'Sports'
p550
aS'Landmark'
p551
ag13
asg16
I1
sg17
S'Wrigley Field'
p552
sa(dp553
g2
(lp554
S'Morning'
p555
ag13
asg6
S'Enjoy practicing your game or playing miniature golf at this picturesque driving range complete with waterfalls & footbridges.'
p556
sg8
S'https://irs0.4sqi.net/img/general/500x300/724939_y9rWUf3kP-Z_cJT65HExPS-TabBuXAH4id0ae997SEE.jpg'
p557
sg10
(lp558
S'Sports'
p559
ag13
ag13
asg14
g27
sg16
I0
sg17
S'Diversey Driving Range'
p560
sa(dp561
g2
(lp562
S'Afternoon'
p563
ag13
asg6
S'Toyota Park stadium is the home of Chicago Fire Soccer and offers live entertainment for world-class concerts and other sporting events.'
p564
sg8
S'https://irs0.4sqi.net/img/general/500x300/wfdhb2DPaUZwLzthxBtJ2tviDIUle8k_glg5MfmbJwQ.jpg'
p565
sg10
(lp566
S'Sports'
p567
ag13
ag13
asg14
g27
sg16
I0
sg17
S'Toyota Park'
p568
sa(dp569
g2
(lp570
S'Afternoon'
p571
ag13
asg6
S'Allstate Arena is a multi-purpose arena. It is home to the Chicago Wolves of the AHL and the Chicago Sky of the WNBA.'
p572
sg8
S'https://www.vipseats.com/Images/Allstate%20Arena%20Tickets.jpg'
p573
sg10
(lp574
S'Sports'
p575
ag13
ag13
asg16
I0
sg17
S'Allstate Arena'
p576
sa(dp577
g2
(lp578
S'Afternoon'
p579
ag13
asg6
S'Ryan Field is a football stadium on the campus of Northwestern University. It is the home of the Northwestern Wildcats football team.'
p580
sg8
S'https://irs0.4sqi.net/img/general/500x300/24331384_E5ToRIDmrAx_9If7MWLgaoVagxYD3i2qulKrzNqEo-Q.jpg'
p581
sg10
(lp582
S'Sports'
p583
ag13
ag13
asg14
g27
sg16
I0
sg17
S'Ryan Field'
p584
sa(dp585
g2
(lp586
S'Afternoon'
p587
ag13
asg6
S'BASH is the top training facility in Chicago for baseball and softball players year-round. Visitors looking to practice their swing or squeeze in a good workout can make use of the pitching machines and batting cages.'
p588
sg8
S'https://irs0.4sqi.net/img/general/500x300/360704_A315Wo0846Pyc5b0Z19Zrq0Zk6bbSVUChptJmQdt6qw.jpg'
p589
sg10
(lp590
S'Sports'
p591
ag13
ag13
asg14
g27
sg16
I0
sg17
S'BASH Sports Academy'
p592
sa(dp593
g2
(lp594
S'Night'
p595
aS'Afternoon'
p596
asg6
S'Chicago Theatre is a landmark performing arts venue for stage plays,  magic shows,  comedy,  speeches,  and popular music concerts. '
p597
sg8
S'http://thomasandjoyce.com/ppc/med/chicago_theatre03.jpg'
p598
sg10
(lp599
S'Theater'
p600
ag13
ag13
asg16
I1
sg17
S'Chicago Theater'
p601
sa(dp602
g2
(lp603
S'Night'
p604
aS'Afternoon'
p605
asg6
S'This state-of-the-art,  two-theater complex is located in Chicago\xe2\x80\x99s theater district,  and is just steps from award-winning dining and accommodation options. The modern stage hosts original and familiar productions.'
p606
sg8
S'https://irs0.4sqi.net/img/general/500x300/6610243_AIiEbCAbDS5HU2ixZdVPokGhY39ICxcXeqFaewXxTWU.jpg'
p607
sg10
(lp608
S'Theater'
p609
ag13
ag13
asg14
g27
sg16
I0
sg17
S'Goodman Theatre'
p610
sa(dp611
g2
(lp612
S'Night'
p613
aS'Afternoon'
p614
asg6
S'Originally built as a backdrop for Vauville in the 1920s,  this theatre has gone on to host several pre-Broadway hits.'
p615
sg8
S'https://irs0.4sqi.net/img/general/500x300/-HM9IHZyFw1JIBXhd8FjSDKymhK3jyEEAxAhjJtWXWk.jpg'
p616
sg10
(lp617
S'Theater'
p618
ag13
ag13
asg14
S'http://www.broadwayinchicago.com'
p619
sg16
I0
sg17
S'Cadillac Palace Theater'
p620
sa(dp621
g2
(lp622
S'Night'
p623
aS'Afternoon'
p624
asg6
S"Built in 1906,  this vintage theater is a showplace from an earlier era that's still one of the country's major touring Broadway houses."
p625
sg8
S'https://irs0.4sqi.net/img/general/500x300/B3XEJFK2AR4PSV4FBUTL5NNASOB0N5ID0MNY4TDYR43FNQR0.jpg'
p626
sg10
(lp627
S'Theater'
p628
ag13
ag13
asg14
S'http://www.broadwayinchicago.com'
p629
sg16
I0
sg17
S'Bank of America Theater'
p630
sa(dp631
g2
(lp632
S'Night'
p633
aS'Afternoon'
p634
asg6
S'The Mercury Theatre is an intimate theater that hosts musicals & performances from local troupes.'
p635
sg8
S'https://irs0.4sqi.net/img/general/500x300/1071629_jC4cY45kphcbZEdd6FeT0Cv7YeBNuUavicHvRCZYaiY.jpg'
p636
sg10
(lp637
S'Theater'
p638
ag13
ag13
asg14
S'http://mercurytheaterchicago.com/index.html'
p639
sg16
I0
sg17
S'Mercury Theater'
p640
sa(dp641
g2
(lp642
S'Night'
p643
aS'Afternoon'
p644
asg6
S'The Music Box Theatre is the premiere venue in Chicago for independent and foreign films. It currently has the largest movie theater space in the city.'
p645
sg8
S'https://irs0.4sqi.net/img/general/500x300/RJ8851I4yu-KVN_x8ZRNLxI1DpkijFuArmKwUUfoqRU.jpg'
p646
sg10
(lp647
S'Theater'
p648
ag13
ag13
asg14
S'http://www.musicboxtheatre.com'
p649
sg16
I1
sg17
S'Music Box Theatre'
p650
sa(dp651
g2
(lp652
S'Night'
p653
aS'Afternoon'
p654
asg6
S'Located in the Water Tower Water Works right on Michigan Avenue,  the theatre specializes in original shows & contemporary literary adaptations. A truly unique visual performance venue.'
p655
sg8
S'https://irs0.4sqi.net/img/general/500x300/u0mNeGs0rLCSl0osVmbfc2o-F9_bMtaRzyoj03T3iL8.jpg'
p656
sg10
(lp657
S'Theater'
p658
ag13
ag13
asg14
S'http://www.lookingglasstheatre.org'
p659
sg16
I0
sg17
S'Lookingglass Theatre Company'
p660
sa(dp661
g2
(lp662
S'Night'
p663
aS'Afternoon'
p664
asg6
S'Built as a movie palace in 1926,  this historic theater was renovated in 1998 and now plays hosts to touring Broadway productions.'
p665
sg8
S'https://irs0.4sqi.net/img/general/500x300/134811_fXT2d0K3wxwImCB-5oTWEW4DlDng2xPQnjYqSNnw_6I.jpg'
p666
sg10
(lp667
S'Theater'
p668
ag13
ag13
asg14
S'http://www.broadwayinchicago.com'
p669
sg16
I0
sg17
S'Oriental Theatre'
p670
sa(dp671
g2
(lp672
S'Night'
p673
aS'Afternoon'
p674
asg6
S'As a production company,  Theater Wit is an art theater that seeks to be the hub of the Chicago neighborhood theater scene.'
p675
sg8
S'http://entertainment.suntimes.com/wp-content/uploads/2014/09/Wit-sign-700x1050.jpg'
p676
sg10
(lp677
S'Theater'
p678
ag13
ag13
asg16
I0
sg17
S'Theatre Wit'
p679
sa(dp680
g2
(lp681
S'Night'
p682
aS'Afternoon'
p683
asg6
S'A newly built theatre in the heart of the Magnificent Mile,  the theatre owned by Broadway also offers dining and theatre packages at nearby restaurants.'
p684
sg8
S'https://irs0.4sqi.net/img/general/500x300/1649297_VOZPzoHwAqzsoIYVqVsrPNfnMAqI_SN35K9vGymSOEA.jpg'
p685
sg10
(lp686
S'Theater'
p687
ag13
ag13
asg14
S'http://www.macys.com'
p688
sg16
I0
sg17
S'Broadway Playhouse at Water Tower Place'
p689
sa(dp690
g2
(lp691
S'Morning'
p692
aS'Afternoon'
p693
asg6
S'The Art Institute of Chicago is the second-largest art museum in the United States most famous for its collections of Impressionist,  Post-Impressionist,  and American paintings.'
p694
sg8
S'https://irs0.4sqi.net/img/general/500x300/149161_eHMuPXA7vRlIvNmhgR1I7LsphuIHm7eFZJ1ML6R9SXk.jpg'
p695
sg10
(lp696
S'Museum'
p697
ag13
ag13
asg14
S'http://www.artinstituteofchicago.org'
p698
sg16
I1
sg17
S'The Art Institute of Chicago'
p699
sa(dp700
g2
(lp701
S'Morning'
p702
aS'Afternoon'
p703
asg6
S'Described as \xe2\x80\x9clandscape art under glass\xe2\x80\x9d when it opened in 1908,  the Garfield Park Conservatory is one of the largest of its kind in the nation. Inside,  visitors will find 120, 000 plants spread across 1.6 acres. A popular rain-or-shine destination for nature lovers,  the conservatory hosts seasonal flower shows as well as occasional concerts and events.'
p704
sg8
S'https://irs0.4sqi.net/img/general/500x300/243070_OYxrTQdPqUBYXRvPta-dVWAXgFcN7BjvzLOc_dDkGS4.jpg'
p705
sg10
(lp706
S'Museum'
p707
ag13
ag13
asg14
S'http://garfieldconservatory.org'
p708
sg16
I0
sg17
S'Garfield Park Conservatory'
p709
sa(dp710
g2
(lp711
S'Morning'
p712
aS'Afternoon'
p713
asg6
S'Take a trip to Lincoln Park,  where visitors can learn about the natural world at the Peggy Notebaert Nature Museum. Outside,  a series of nature trails take explorers past a lagoon and a prairie garden,  while indoor attractions include interactive ecosystems and the 2, 700-square-foot Judy Istock Butterfly Haven.'
p714
sg8
S'https://irs0.4sqi.net/img/general/500x300/21210886_QUrm7xqkD7aNwe8yHowib1twhmHCtm-enTiOJNbVeWQ.jpg'
p715
sg10
(lp716
S'Museum'
p717
ag13
ag13
asg14
S'http://www.naturemuseum.org'
p718
sg16
I0
sg17
S'Peggy Notebaert Nature Museum'
p719
sa(dp720
g2
(lp721
S'Morning'
p722
aS'Afternoon'
p723
asg6
S"The Field Museum is a premier natural history museum'"
p724
sg8
S'https://irs0.4sqi.net/img/general/500x300/449208_yFAW9icB0_go5XfyCkVlWXqNvQiRbwdI-sEPHXuYxg4.jpg'
p725
sg10
(lp726
S'Museum'
p727
ag13
ag13
asg14
S'http://www.fieldmuseum.org'
p728
sg16
I1
sg17
S'The Field Museum'
p729
sa(dp730
g2
(lp731
S'Morning'
p732
aS'Afternoon'
p733
asg6
S'Located next to the University of Chicago and boasting exhibits from the top innovators in the science world,  the Museum of Science and Industry provides a wide array of experiences that are both fun and educational for the whole family.'
p734
sg8
S'https://irs0.4sqi.net/img/general/500x300/37837410_1-5g5zj0O0EJIamTzHpkpp0R8FlNYxwUz3UVtkcTT3A.jpg'
p735
sg10
(lp736
S'Museum'
p737
ag13
ag13
asg14
S'http://www.msichicago.org'
p738
sg16
I1
sg17
S'Museum of Science and Industry'
p739
sa(dp740
g2
(lp741
S'Morning'
p742
aS'Afternoon'
p743
asg6
S'As the largest indoor aquarium in the world,  with more than 8000 aquatic animals,  the Shedd is one of the city\xe2\x80\x99s most popular attractions.'
p744
sg8
S'https://irs0.4sqi.net/img/general/500x300/126627612_QkQ5-qdeS9o39G6XFeH_g2TVtxrXQbRnSm9Bws-07SU.jpg'
p745
sg10
(lp746
S'Museum'
p747
ag13
ag13
asg14
g27
sg16
I1
sg17
S'Shedd Aquarium'
p748
sa(dp749
g2
(lp750
S'Morning'
p751
aS'Afternoon'
p752
asg6
S'The Planeterium is a premier public resource for learning about astronomy discoveries,  history and astrophysics.'
p753
sg8
S'https://irs0.4sqi.net/img/general/500x300/43119368_x9-CzoEKjLVS8mlAC7ZaueMb4_c4nJT3LTwotCiSOTw.jpg'
p754
sg10
(lp755
S'Museum'
p756
ag13
ag13
asg14
S'http://www.adlerplanetarium.org'
p757
sg16
I0
sg17
S'Adler Planetarium'
p758
sa(dp759
g2
(lp760
S'Morning'
p761
aS'Afternoon'
p762
asg6
S'This first Mexican cultural center in the Midwest and the largest in the nation featuring Mexican,  Latino,  and Chicano art and culture. '
p763
sg8
S'https://irs0.4sqi.net/img/general/500x300/9592_y-qXZ34I1pkdS5IUpe3-tCktYYYA1Xv0cIeRL5Dbd74.jpg'
p764
sg10
(lp765
S'Museum'
p766
ag13
ag13
asg14
g27
sg16
I0
sg17
S'National Museum of Mexican Art'
p767
sa(dp768
g2
(lp769
S'Morning'
p770
aS'Afternoon'
p771
asg6
S"This museum explores both Chicago and American history houses Chicago's most important collection of programs,  publications,  and online resources."
p772
sg8
S'https://irs0.4sqi.net/img/general/500x300/iYWBJQdysenTNmAtGUN_BaZKRL2Bn2z7GHSkRyVg2qg.jpg'
p773
sg10
(lp774
S'Museum'
p775
ag13
ag13
asg14
S'http://www.chicagohistory.org'
p776
sg16
I0
sg17
S'Chicago History Museum'
p777
sa(dp778
g2
(lp779
S'Morning'
p780
aS'Afternoon'
p781
asg6
S'Steps away from the Mag Mile,  the museum is one of Chicago\xe2\x80\x99s historic treasures. Once the home of 19th-century banker,  Samuel Mayo Nickerson,  the galleries transports visitors back to Chicago\xe2\x80\x99s Gilded Age.'
p782
sg8
S'https://irs0.4sqi.net/img/general/500x300/2907504_1Z_47ADx-pwfTMcapCEFYOn7NMYXIfQhs-pyIKpfhLQ.jpg'
p783
sg10
(lp784
S'Museum'
p785
ag13
ag13
asg14
g27
sg16
I0
sg17
S'Richard H. Driehaus Museum'
p786
sa(dp787
g2
(lp788
S'Morning'
p789
aS'Afternoon'
p790
asg6
S'The first and oldest museum dedicated to the study and conservation of African American history,  culture,  and art.'
p791
sg8
S'https://irs0.4sqi.net/img/general/500x300/jDwGC-PmfP0gHLkcinlWAm_PyXr-v5eIVjzw9uaxEs8.jpg'
p792
sg10
(lp793
S'Museum'
p794
ag13
ag13
asg14
S'http://www.dusablemuseum.org'
p795
sg16
I0
sg17
S'Dusable Museum of African American History'
p796
sa(dp797
g2
(lp798
S'Afternoon'
p799
aS'Morning'
p800
asg6
S'Wicker Park shop that carries a variety of products including home decor,  apothecary,  print,  ceramics,  and accessories for men + women from independent makers or small manufacturers.'
p801
sg8
S'https://res.cloudinary.com/gigsalad/image/fetch/e_blur:170,w_600,h_600,fl_progressive,q_90,f_jpg/https%3A%2F%2Fs3.amazonaws.com%2Fgigsalad_media%2Fg%2Fgather_home_tiverton%2F54dd222b9ecb2_300_sq'
p802
sg10
(lp803
S'Shopping'
p804
ag13
ag13
asg16
I0
sg17
S'Gather Home & Lifestyle'
p805
sa(dp806
g2
(lp807
S'Afternoon'
p808
aS'Morning'
p809
asg6
S"A home decor shop in Chicago's Andersonville neighborhood that carries a large selection of antique pieces and specializes in reupholstery of early to mid-20th century furniture."
p810
sg8
S'https://irs0.4sqi.net/img/general/500x300/40923799_phlULC5Lf3FLynt9CLmpq90mOXKHBbHafphq32S-Z-k.jpg'
p811
sg10
(lp812
S'Shopping'
p813
ag13
ag13
asg14
S'http://www.brimfieldus.com'
p814
sg16
I0
sg17
S'Brimfield'
p815
sa(dp816
g2
(lp817
S'Afternoon'
p818
aS'Morning'
p819
asg6
S"One of Chicago's popular shopping destinations thanks to its location on the 'Mag Mile.' Part mall,  part skyscraper,  it houses over 100 retail shops and restaurants."
p820
sg8
S'https://irs0.4sqi.net/img/general/500x300/h1plHr4__bgByLZPMEzeilST-sY0lbwk--3nz3UhaEc.jpg'
p821
sg10
(lp822
S'Shopping'
p823
ag13
ag13
asg14
S'http://www.ggp.com'
p824
sg16
I1
sg17
S'Water Tower Plaza'
p825
sa(dp826
g2
(lp827
S'Afternoon'
p828
aS'Morning'
p829
asg6
S'Chicago\xe2\x80\x99s Magnificent Mile is the perfect place for a fun and exciting shopping experience. It boasts a variety of retail shops,  designer boutiques,  department stores and dining options.'
p830
sg8
S'https://irs0.4sqi.net/img/general/500x300/BF5VUjSawMvavixG7vni57Qq6bMVuACrs-SrP1d8-FU.jpg'
p831
sg10
(lp832
S'Shopping'
p833
ag13
ag13
asg14
g27
sg16
I1
sg17
S'The Magnificent Mile'
p834
sa(dp835
g2
(lp836
S'Afternoon'
p837
aS'Morning'
p838
asg6
S"Located directly across from O'Hare International Airport in Rosemont,  this is the perfect stop for visitors looking for a bargin on designer goods."
p839
sg8
S'https://irs0.4sqi.net/img/general/500x300/60459156_5tEsqUS_JuH-pGPqro0r-ATC6j6v9aDZwsBTakTdZQY.jpg'
p840
sg10
(lp841
S'Shopping'
p842
ag13
ag13
asg14
g27
sg16
I0
sg17
S'Fashion Outlets of Chicago'
p843
sa(dp844
g2
(lp845
S'Afternoon'
p846
aS'Morning'
p847
asg6
S"An independent bookstore in the Lakeview that has been a neighborhood favorite for over 30 years. It's a one-stop shop to find the classics and newest titles."
p848
sg8
S'https://irs0.4sqi.net/img/general/500x300/13287591_-DC8hyQuMUa3NVI5Bwnl-klO0mkqv7wkjyAIGY5RYaA.jpg'
p849
sg10
(lp850
S'Shopping'
p851
ag13
ag13
asg14
S'http://unabridgedbookstore.tumblr.com'
p852
sg16
I0
sg17
S'Unabridged Bookstore'
p853
sa(dp854
g2
(lp855
S'Afternoon'
p856
aS'Morning'
p857
asg6
S'This online brand\xe2\x80\x99s has opened up its third freestanding store here in Chicago for clients looking to rent a look for a night. '
p858
sg8
S'https://irs0.4sqi.net/img/general/500x300/439904_PYrC-QDhboScydKGJ-TDXUF9ibWgSDgNafq__7yw9UA.jpg'
p859
sg10
(lp860
S'Shopping'
p861
ag13
ag13
asg14
g27
sg16
I0
sg17
S'Rent the Runway'
p862
sa(dp863
g2
(lp864
S'Afternoon'
p865
aS'Morning'
p866
asg6
S'A large resale/thrift store in Lincoln Park stocked with clothes & jewelry,  plus art,  furniture,  dishes,  accessories & lighting.'
p867
sg8
S'https://maryannmiceli.files.wordpress.com/2013/08/dscn2382.jpg'
p868
sg10
(lp869
S'Shopping'
p870
ag13
ag13
asg16
I0
sg17
S'New Elephant Resale'
p871
sa(dp872
g2
(lp873
S'Afternoon'
p874
aS'Morning'
p875
asg6
S"The Shops at Roosevelt Collection delivers upscale retail and sophisticated urban living in the heart of Chicago's South Loop."
p876
sg8
S'https://irs0.4sqi.net/img/general/500x300/216608_zfBMltnJVf3K91FeRKBy_CEW5sy6m4zKf_i7AyHhkBw.jpg'
p877
sg10
(lp878
S'Shopping'
p879
ag13
ag13
asg14
g27
sg16
I0
sg17
S'The Shops at Roosevelt Collection'
p880
sa(dp881
g2
(lp882
S'Morning'
p883
aS'Afternoon'
p884
asg6
S'Better known as \xe2\x80\x9cThe Bean\xe2\x80\x9d because of its unique,  bean-like shape,  Cloud Gate is one of Chicago\xe2\x80\x99s most well-known landmarks located in the heart of the city next to Millenium Park. Most tourists love to take a picutre in front of the iconic sculpture to experience a real piece of the Chicago cityscape.'
p885
sg8
S'https://irs0.4sqi.net/img/general/500x300/11371709_7Z5-3Vip71ytL9cEfbX1Pd8_Saxlni61z8uimGA0Bsg.jpg'
p886
sg10
(lp887
S'Outdoors'
p888
aS'Landmark'
p889
ag13
asg14
S'http://www.millenniumpark.org'
p890
sg16
I1
sg17
S'Cloudgate'
p891
sa(dp892
g2
(lp893
S'Morning'
p894
aS'Afternoon'
p895
asg6
S"Located in Chicago's central business district,  the park's most notable features are Millennium Park,  Buckingham Fountain,  the Art Institute of Chicago and the Museum Campus."
p896
sg8
S'https://irs0.4sqi.net/img/general/500x300/288482_X0l1NSf5K0mqme2x37l1qnWiRoyhHLTHN2jOMCbGWLU.jpg'
p897
sg10
(lp898
S'Outdoors'
p899
ag13
ag13
asg14
S'http://chicagoparkdistrict.com'
p900
sg16
I0
sg17
S'Grant Park'
p901
sa(dp902
g2
(lp903
S'Morning'
p904
aS'Afternoon'
p905
asg6
S"This tourist hot spot features shops,  eateries,  an IMAX cinema and sightseeing boat tours. The 150-foot-high Ferris wheel is one its most popular attractions,  but you can also find the Chicago Children's Museum and a rotating roster of live entertainment on the Family Pavilion Stage."
p906
sg8
S'https://irs0.4sqi.net/img/general/500x300/2439138_QCvB9SkRVvnYMeN8ewVwNfITss0W7Qvjbe1CUDVZ8tU.jpg'
p907
sg10
(lp908
S'Outdoors'
p909
aS'Landmark'
p910
ag13
asg14
S'http://www.navypier.com'
p911
sg16
I1
sg17
S'Navy Pier'
p912
sa(dp913
g2
(lp914
S'Morning'
p915
aS'Afternoon'
p916
asg6
S'See some 1, 200 animals,  from apes to zebras,  at the oldest and one of only a few free zoos left in the country. It is small,  only 35 acres,  but is one of Chicago\xe2\x80\x99s most iconic sites.'
p917
sg8
S'https://irs0.4sqi.net/img/general/500x300/46712171_RslcAdlixIVoepaImdZGU6F18sWUF5nBM5_4dQLxF6A.jpg'
p918
sg10
(lp919
S'Outdoors'
p920
ag13
ag13
asg14
g27
sg16
I0
sg17
S'Lincon Park Zoo'
p921
sa(dp922
g2
(lp923
S'Morning'
p924
aS'Afternoon'
p925
asg6
S'A part of the Lincoln Park Conservancy,  the Alfred Caldwell Lily Pool is a refreshing place to rest and escape from the hustle and bustle of the city. The sounds of waterfalls and birds chirping drown out the noisy city life and provide a calming atmosphere.'
p926
sg8
S'https://irs0.4sqi.net/img/general/500x300/uSHQ4lohDpKjnh5EGL-wf9La97Axc6ImBcf3uTeYEE4.jpg'
p927
sg10
(lp928
S'Outdoors'
p929
ag13
ag13
asg14
S'http://chicagoparkdistrict.com'
p930
sg16
I0
sg17
S'Alfred Caldwell Lily Pool'
p931
sa(dp932
g2
(lp933
S'Morning'
p934
aS'Afternoon'
p935
asg6
S'Millennium Park contains a selection of Chicago\xe2\x80\x99s most iconic sights,  ranging from the popular Cloud Gate to the towering Crown Fountain. When the weather is warm,  you can see a free concert at the Frank Gehry\xe2\x80\x93designed Pritzker Pavilion or have a picnic in the heart of the city.'
p936
sg8
S'http://www.tnetnoc.com/public/ANS/Dynaflex/Images/SEO/Chicago-MilleniumPark_hero_495x200.jpg'
p937
sg10
(lp938
S'Outdoors'
p939
aS'Landmark'
p940
ag13
asg16
I1
sg17
S'Millenium Park'
p941
sa(dp942
g2
(lp943
S'Morning'
p944
aS'Afternoon'
p945
asg6
S'Take in some amazing views of Lake Michigan along the 18-mile Lakefront Trail. Run,  bike or walk along the path,  which connects attractions like the Museum Campus,  Belmont Harbor,  McCormick Place and most of the city\xe2\x80\x99s beaches.'
p946
sg8
S'https://irs0.4sqi.net/img/general/500x300/552252_am74cxqEufjBBtiKmdFi53WV3tFdBio679FTMV4cJ-s.jpg'
p947
sg10
(lp948
S'Outdoors'
p949
ag13
ag13
asg14
g27
sg16
I0
sg17
S'Lakefront Trail'
p950
sa(dp951
g2
(lp952
S'Morning'
p953
aS'Afternoon'
p954
asg6
S'This video sculpture,  which features a rotating display of local faces,  is located next to many of Chicago\xe2\x80\x99s top attractions in Millennium Park. In the warmer months,  the fountain allows visitors a chance to cool off.'
p955
sg8
S'https://irs0.4sqi.net/img/general/500x300/libWdhA_4s4944Jyn3EHSZaunQPO2EXKZPm5RExBjcU.jpg'
p956
sg10
(lp957
S'Outdoors'
p958
ag13
ag13
asg14
S'http://millenniumpark.org'
p959
sg16
I0
sg17
S'Crown Fountain'
p960
sa(dp961
g2
(lp962
S'Morning'
p963
aS'Afternoon'
p964
asg6
S'Home to the world\xe2\x80\x99s first skyscraper,  Chicago boosts some of the country\xe2\x80\x99s finest architecture. A guided tour down the Chicago River is one of the best ways to learn about the city\xe2\x80\x99s architectural heritage,  with some amazing views.'
p965
sg8
S'https://irs0.4sqi.net/img/general/500x300/306448_qSTPGFx5wA4ZtEfZR4oAXJz-zPN87PysO2cWqkxDSqg.jpg'
p966
sg10
(lp967
S'Outdoors'
p968
ag13
ag13
asg14
g27
sg16
I0
sg17
S'Architecture Boat Tour'
p969
sa(dp970
g2
(lp971
S'Morning'
p972
aS'Afternoon'
p973
asg6
S'Located just north of Michigan Avenue,  this popular summer hotspot offers beach goers chair rentals,  food and beverage options at Oak Street Beach Caf\xc3\xa9,  bike rentals,  volleyball rentals,  restrooms and a spectacular view of the city skyline.'
p974
sg8
S'https://irs0.4sqi.net/img/general/500x300/36442_YzAMg26v_b-9ntFz7LeFC3so7qAxT62f4Y3XaUQHYPM.jpg'
p975
sg10
(lp976
S'Outdoors'
p977
ag13
ag13
asg14
S'http://chicagoparkdistrict.com'
p978
sg16
I0
sg17
S'Oak Street Beach'
p979
sa(dp980
g2
(lp981
S'Night'
p982
ag13
asg6
S" A DJ-driven party scene with bottle service that draws a flashy crowd in Chicago's River North neighborhood."
p983
sg8
S'https://irs0.4sqi.net/img/general/500x300/91125335_ncKImInYEzMCaxJc7cELviS38ezL4bY4ZhFwoEAMCow.jpg'
p984
sg10
(lp985
S'Nightlife'
p986
ag13
ag13
asg14
S'http://studioparisnightclub.com'
p987
sg16
I0
sg17
S'Studio Paris Nightclub'
p988
sa(dp989
g2
(lp990
S'Night'
p991
ag13
asg6
S'A high-energy dueling piano bar in River North.'
p992
sg8
S'https://irs0.4sqi.net/img/general/500x300/3066079_MeT_fneAp1rxhZifLy5RJCSVVf5ec5d9OGlNDIr4Y00.jpg'
p993
sg10
(lp994
S'Nightlife'
p995
ag13
ag13
asg14
S'http://www.howlatthemoon.com'
p996
sg16
I0
sg17
S'Howl at the Moon Piano Bar'
p997
sa(dp998
g2
(lp999
S'Night'
p1000
ag13
asg6
S'Dance club & lounge with DJs spinning a wide selection of tunes'
p1001
sg8
S'http://beforelastcall.ca/photo/6b0deed5-5895-4292-a6bc-832f2d530078/PhotoStreamLarge/cover.jpg'
p1002
sg10
(lp1003
S'Nightlife'
p1004
ag13
ag13
asg16
I0
sg17
S'The Apartment Nightclub'
p1005
sa(dp1006
g2
(lp1007
S'Night'
p1008
ag13
asg6
S'Open until 5 a.m. on Fridays and 4 a.m. throughout the rest of the week,  Underground offers late-night dancing to club music.'
p1009
sg8
S'https://irs0.4sqi.net/img/general/500x300/8843032_l0RYkh2sOQgikwQ_I89Fd_vfk0v6xx8vZJeOPD4b3Wc.jpg'
p1010
sg10
(lp1011
S'Nightlife'
p1012
ag13
ag13
asg14
S'http://plymouthgrill.com'
p1013
sg16
I0
sg17
S'Underground Bar'
p1014
sa(dp1015
g2
(lp1016
S'Night'
p1017
ag13
asg6
S'Seperate from The Signature Room on the 95th floor of the John Hancock Center,  the lounge offers the same spectaular views of Chicago. Along with one of the best views of the city,  it also offers guests signature cocktails,  a gourmet menu and dessert.'
p1018
sg8
S'https://irs0.4sqi.net/img/general/500x300/3266999_4CvuGF9Et7llwnVIdqCw145ONovhL5DHxFvdAkWW0Yw.jpg'
p1019
sg10
(lp1020
S'Nightlife'
p1021
ag13
ag13
asg14
S'http://signatureroom.com'
p1022
sg16
I0
sg17
S'Signature Lounge'
p1023
sa(dp1024
g2
(lp1025
S'Night'
p1026
ag13
asg6
S"This underground club is 'in the heart of the city's nightlife epicenter' in the River North neighborhood. A cross between a club and lounge,  DJs here spin electronic,  techno & house music."
p1027
sg8
S'https://irs0.4sqi.net/img/general/500x300/8843032_l0RYkh2sOQgikwQ_I89Fd_vfk0v6xx8vZJeOPD4b3Wc.jpg'
p1028
sg10
(lp1029
S'Nightlife'
p1030
ag13
ag13
asg14
S'http://plymouthgrill.com'
p1031
sg16
I0
sg17
S'Spy Bar'
p1032
sa(dp1033
g2
(lp1034
S'Night'
p1035
ag13
asg6
S'A multi-level nightclub in River North that has bottle service,  live DJs and stays open late. Offering a mix of ""R&B,  hip\xe2\x80\x91hop"" and ""techno, "" it\'s perfect for clubgoers looking to dance.'
p1036
sg8
S'http://chicagobarparties.com/images/soundbar.gif'
p1037
sg10
(lp1038
S'Nightlife'
p1039
ag13
ag13
asg16
I0
sg17
S'Sound bar'
p1040
sa(dp1041
g2
(lp1042
S'Night'
p1043
ag13
asg6
S'Open until 4 or 5 a.m.,  this is the perfect upscale late-night spot for clubgoers that features top muscians and DJs.'
p1044
sg8
S'http://c308991.r91.cf1.rackcdn.com/SiteFiles/Venues/3178/82d.jpg'
p1045
sg10
(lp1046
S'Nightlife'
p1047
ag13
ag13
asg16
I0
sg17
S'The Mid'
p1048
sa(dp1049
g2
(lp1050
S'Night'
p1051
ag13
asg6
S'This River North bar takes after a classic speakeasy,  but is anything but quaint. Divided in several different rooms,  the restaurant features craft cocktails,  live music,  secret entrances and doubles as a supper club.'
p1052
sg8
S'https://irs0.4sqi.net/img/general/500x300/1476576_zcEslM8luTpzAbpYU_MpRdaUJWypGy_ABrJ7Caapw0o.jpg'
p1053
sg10
(lp1054
S'Nightlife'
p1055
ag13
ag13
asg14
S'http://www.untitledchicago.com'
p1056
sg16
I0
sg17
S'Untitled'
p1057
sa(dp1058
g2
(lp1059
S'Night'
p1060
ag13
asg6
S"Owned and operated by famed chef Grant Achatz,  this swanky West Loop lounge gives some serious attention to cocktails. While it does take walk-ins,  it's better to purchase tickets for a reservation in advance."
p1061
sg8
S'http://roamandhome.files.wordpress.com/2011/05/aviary-003.jpg'
p1062
sg10
(lp1063
S'Nightlife'
p1064
ag13
ag13
asg16
I0
sg17
S'The Aviary'
p1065
sa(dp1066
g2
(lp1067
S'Night'
p1068
ag13
asg6
S"Chicago's very own tiki lounge. This River North hot spot features both classic and modern tiki cocktails in a retro Polynesian-island setting."
p1069
sg8
S'https://irs0.4sqi.net/img/general/500x300/56573769_R1Jdf4-0TnWcSQDcwAccDsrLiO3oFxQEBoQeGdnaqTw.jpg'
p1070
sg10
(lp1071
S'Nightlife'
p1072
ag13
ag13
asg14
S'http://www.threedotschicago.com'
p1073
sg16
I0
sg17
S'3 Dots and a Dash'
p1074
sa(dp1075
g2
(lp1076
S'Night'
p1077
ag13
asg6
S"Trendy late-night lounge in Chicago's River North neighborhood with a champagne-centered bar & DJ dancing amid elaborate upscale decor"
p1078
sg8
S'https://irs0.4sqi.net/img/general/500x300/guzMlu-IRlJkB5sk2KHHGWwk7YPbn9hrMKZoVdCN0uE.jpg'
p1079
sg10
(lp1080
S'Nightlife'
p1081
ag13
ag13
asg14
S'http://cuveechicago.com'
p1082
sg16
I0
sg17
S'Cuvee'
p1083
sa(dp1084
g2
(lp1085
S'Morning'
p1086
aS'Afternoon'
p1087
asg6
S'One hundred and three floors above the streets,  visitors can see as far as 50 miles in all directions from the top of the iconic skyscraper. If you\xe2\x80\x99re feeling brave,  step out onto the Ledge\xe2\x80\x94a glass cube suspended from the side of the building that will make you feel like you\xe2\x80\x99re walking on air.'
p1088
sg8
S'https://irs0.4sqi.net/img/general/500x300/280513_dS2V_vYZSyeSMmPTVH5XRO9bni_efKU08EvrPr3MUfI.jpg'
p1089
sg10
(lp1090
S'Landmark'
p1091
ag13
ag13
asg14
S'http://www.willistower.com'
p1092
sg16
I1
sg17
S'Willis Tower'
p1093
sa(dp1094
g2
(lp1095
S'Morning'
p1096
aS'Afternoon'
p1097
asg6
S'Formerly known as the John Hancock Observatory,  360 Chicago offers visitors with a view of up to 55 miles out and four states from 1, 000 feet up on the 94th floor. The Tilt attraction,  which allows visitors to step onto an enclosed platform that extends from the building at a 30 degree angle offers a stomach-dropping view of the street below.'
p1098
sg8
S'https://irs0.4sqi.net/img/general/500x300/83434151_FTAE-FWMfrdMBcJYjcsJUudxO4AbN3uzxigkB65-i1E.jpg'
p1099
sg10
(lp1100
S'Landmark'
p1101
ag13
ag13
asg14
S'http://www.mrhandyman.com/local-handyman-service/il/northern-chicago.aspx'
p1102
sg16
I1
sg17
S'360 Chicago'
p1103
sa(dp1104
g2
(lp1105
S'Afternoon'
p1106
aS'Night'
p1107
asg6
S"With breathtaking architecture and an abundance of cultural attractions,  Chinatown is one of Chicago's most exciting neighborhoods to explore. "
p1108
sg8
S'https://irs0.4sqi.net/img/general/500x300/13044685_Rt0G5rWnH-TqxWP1pBj2CdpQuNZSvQ15b2wYMmiuCHs.jpg'
p1109
sg10
(lp1110
S'Landmark'
p1111
ag13
ag13
asg14
S'http://www.chicagochinatown.org'
p1112
sg16
I0
sg17
S'Chinatown'
p1113
sa.