(lp0
(dp1
S'TimeTags'
p2
(lp3
S'Afternoon'
p4
aS'Night'
p5
asS'description'
p6
S"An improvisational comedy theatre troupe,  Second City's talented cast creates original sketches for adult audiences."
p7
sS'img'
p8
S'http://media-cdn.tripadvisor.com/media/photo-s/02/da/63/46/second-city.jpg'
p9
sS'tags'
p10
(lp11
S'Comedy'
p12
aS''
p13
ag13
asS'iconic'
p14
I1
sS'name'
p15
S'Second City'
p16
sa(dp17
g2
(lp18
S'Afternoon'
p19
aS'Night'
p20
asg6
S'UP Comedy club is a cabaret-style club that features live stand-up,  sketch comedy & improv,  plus cocktails & a full dinner menu.'
p21
sg8
S'https://irs0.4sqi.net/img/general/500x300/4502435_DQYve-vOjJLjmfo6YseYtC-Acies_O3ufVH9Cv4bOvc.jpg'
p22
sg10
(lp23
S'Comedy'
p24
ag13
ag13
asS'url'
p25
S'No Url'
p26
sg14
I0
sg15
S'Up Comedy Club'
p27
sa(dp28
g2
(lp29
S'Afternoon'
p30
aS'Night'
p31
asg6
S'The Laugh Factory is a comedy club for seasoned & emerging stand-up acts,  plus surprise celebrity guests.'
p32
sg8
S'https://irs0.4sqi.net/img/general/500x300/426443_89_Lgp0spmZDqFl6fq0iUtNgabg41qbr_-orLkTnSEA.jpg'
p33
sg10
(lp34
S'Comedy'
p35
ag13
ag13
asg25
g26
sg14
I0
sg15
S'Laugh Factory'
p36
sa(dp37
g2
(lp38
S'Afternoon'
p39
aS'Night'
p40
asg6
S'Since 1978,  Zanies regularly brings in top Comedians from all around the country. The comedy club changes its roster weekly,  which allows for endless fun.'
p41
sg8
S'https://irs0.4sqi.net/img/general/500x300/6717479_-P7fstQjVYbj0NMbEG5J2GHpOKWZkfMGQHGq2FSsZbI.jpg'
p42
sg10
(lp43
S'Comedy'
p44
ag13
ag13
asg25
S'http://www.zanies.com'
p45
sg14
I0
sg15
S'Zanies'
p46
sa(dp47
g2
(lp48
S'Afternoon'
p49
aS'Night'
p50
asg6
S'IO Chicago is a warehouselike hangout inside the comedy club that serves up specialty cocktails and an array of plates.'
p51
sg8
S'https://irs0.4sqi.net/img/general/500x300/83434151_FTAE-FWMfrdMBcJYjcsJUudxO4AbN3uzxigkB65-i1E.jpg'
p52
sg10
(lp53
S'Comedy'
p54
ag13
ag13
asg25
S'http://www.mrhandyman.com/local-handyman-service/il/northern-chicago.aspx'
p55
sg14
I0
sg15
S'IO Chicago'
p56
sa(dp57
g2
(lp58
S'Afternoon'
p59
aS'Night'
p60
asg6
S'Jokes & Notes is a 150-seat club fully equiped with a bar,  banquettes,  and TVs that provides a hip feel to those who love to laugh and drink in the same place.'
p61
sg8
S'https://irs0.4sqi.net/img/general/500x300/866819_4xmUPWUA2HAjWBX55wzHCdLrkeq8IhF1nkn2U9lURDI.jpg'
p62
sg10
(lp63
S'Comedy'
p64
ag13
ag13
asg25
S'http://jokesandnotes.com'
p65
sg14
I0
sg15
S'Jokes & Notes'
p66
sa(dp67
g2
(lp68
S'Afternoon'
p69
aS'Night'
p70
asg6
S"ComedySportz Chicago is a hilarious improv show where teams are made to create scenes,  games,  and songs on the spot! The audience chooses the winner,  and it's fun for the whole family."
p71
sg8
S'https://irs0.4sqi.net/img/general/500x300/10742941_tWBYrhFX2-tNBmsl9QocTh1jzs8vQNM2KoI2y4yVgAI.jpg'
p72
sg10
(lp73
S'Comedy'
p74
ag13
ag13
asg25
g26
sg14
I0
sg15
S'ComedySportz'
p75
sa(dp76
g2
(lp77
S'Afternoon'
p78
aS'Night'
p79
asg6
S'The Comedy Bar is a classic comedy venue in the heart of Chicago,  and has been named as one of the Best Comedy Clubs in Chicago by the Chicago magazine.'
p80
sg8
S'https://irs0.4sqi.net/img/general/500x300/33219534_KpU_ZvprDXJkW_ZBNtUpDMwdaLIbQnWjYyn8jj2p_oU.jpg'
p81
sg10
(lp82
S'Comedy'
p83
ag13
ag13
asg25
S'http://comedybarchicago.com'
p84
sg14
I0
sg15
S'The Comedy Bar'
p85
sa(dp86
g2
(lp87
S'Afternoon'
p88
aS'Night'
p89
asg6
S'Established in 1990,  Riddles Comedy Club has hosted a wide variety of hilarious comics such as Drew Carey,  Martin Lawrence,  and Ellen DeGeneres,  among others. With a full-service bar and accessible free parking,  Riddles is a great place to have a nice night out with friends.'
p90
sg8
S'https://irs0.4sqi.net/img/general/500x300/dGX7DFAwD7eS1xCw2BAb96A3oz8or8_XsnPZit8VrT8.jpg'
p91
sg10
(lp92
S'Comedy'
p93
ag13
ag13
asg25
S'http://www.myriddlescomedyclub.com'
p94
sg14
I0
sg15
S'Riddles Comedy Club'
p95
sa(dp96
g2
(lp97
S'Afternoon'
p98
aS'Night'
p99
asg6
S'The Annnoyance Theater creates some of the finest comedic acts in Chicago and has its root in the art of improvisation. Besides its bar,  the Annoyance Theater has space for improv classes in order to hone your comedic chops.'
p100
sg8
S'https://irs0.4sqi.net/img/general/500x300/HVfLRMmP2bZdHvR5NE8el39KcVwsW9Y1QC5BqedS1Rw.jpg'
p101
sg10
(lp102
S'Comedy'
p103
ag13
ag13
asg25
S'http://www.theproteinbar.com'
p104
sg14
I0
sg15
S'The Annoyance Theater and Bar'
p105
sa(dp106
g2
(lp107
S'Night'
p108
ag13
asg6
S'Lincoln Hall is a beautiful venue where great shows and great food come together to create a wonderful experience. Their courteous staff allows for an enjoyable night out.'
p109
sg8
S'https://irs0.4sqi.net/img/general/500x300/U8BG3g39QDiqDvo7YXezX7eeucSBdOs1CvdHDKQBXQI.jpg'
p110
sg10
(lp111
S'Music'
p112
aS'Food'
p113
aS'Bar'
p114
asg25
g26
sg14
I0
sg15
S'Lincoln Hall'
p115
sa(dp116
g2
(lp117
S'Night'
p118
ag13
asg6
S"Kingston Mines is one of Chicago's oldest and largest blues joints where concerts and dancing don't stop until the early morning."
p119
sg8
S'https://irs0.4sqi.net/img/general/500x300/44736170_awU11hO87znkg8m01hS1W0oCr6xc-XmUTdWckB0EB4w.jpg'
p120
sg10
(lp121
S'Music'
p122
aS'Bar'
p123
ag13
asg25
g26
sg14
I0
sg15
S'Kingston Mines'
p124
sa(dp125
g2
(lp126
S'Night'
p127
ag13
asg6
S"The Riviera Theatre is a concert venue popular for both local and national acts'"
p128
sg8
S'http://uplup.com/music_spot/riviera-theatre-chicago/main_image/Riviere%20Theater.jpg'
p129
sg10
(lp130
S'Music'
p131
ag13
ag13
asg14
I0
sg15
S'The Riviera'
p132
sa(dp133
g2
(lp134
S'Night'
p135
ag13
asg6
S"Andy's Jazz Club is one of Chicago's best known jazz clubs,  where smooth music is paired with a classic menu of Chicago's top Jazz artists. The club features local performers as well as world-class musicians from around the world in a beautiful,  intimate space in the city."
p136
sg8
S'https://irs0.4sqi.net/img/general/500x300/827863_-ccgFSn8W8kHUZD0Bk9jjk9rBOvC_w6Q-UTqpDrjakA.jpg'
p137
sg10
(lp138
S'Music'
p139
aS'Bar'
p140
ag13
asg25
S'http://www.andysjazzclub.com'
p141
sg14
I0
sg15
S"Andy's Jazz Club"
p142
sa(dp143
g2
(lp144
S'Night'
p145
ag13
asg6
S'The Green Mill Cocktail Lounge is a sophisticated bar that features all types of Jazz music,  including ""traditional,  bebop,  contemporary,  and improvisational."" Nightly shows provide endless entertainment to the Green Mill-goer.'
p146
sg8
S'http://uplup.com/music_spot/green-mill-chicago/main_image/Green%20Mill%20Chicago%20music.jpg'
p147
sg10
(lp148
S'Music'
p149
aS'Bar'
p150
ag13
asg14
I1
sg15
S'Green Mill'
p151
sa(dp152
g2
(lp153
S'Night'
p154
ag13
asg6
S"The Aragon Ballroom is a concert venue & event paced designed to replicate an ornate Spanish palace courtyard'"
p155
sg8
S'https://irs0.4sqi.net/img/general/500x300/1142943_08uk67tBtDDlDfcxEXWSMxdr8qlVtkWFqtqhHuyTWLg.jpg'
p156
sg10
(lp157
S'Music'
p158
ag13
ag13
asg25
S'http://www.aragon.com'
p159
sg14
I0
sg15
S'Aragon Ballroom'
p160
sa(dp161
g2
(lp162
S'Night'
p163
ag13
asg6
S'Owned by Lonie Walker and established in 1989,  this bar features live performances,  great food,  and fun drinks for any Chicagoan. With 3 stages and 2 bars,  the Underground Wonder Bar provides a unique and diverse experience to its guests.'
p164
sg8
S'https://irs0.4sqi.net/img/general/500x300/11719619_2ldHF_aGOz7AvIwOhL7l1o2X9bd7VtLti22iV444FSw.jpg'
p165
sg10
(lp166
S'Music'
p167
aS'Bar'
p168
ag13
asg25
S'http://www.undergroundwonderbar.com'
p169
sg14
I0
sg15
S'The Underground Wonderbar'
p170
sa(dp171
g2
(lp172
S'Night'
p173
ag13
asg6
S'The M lounge has an intimate feel with soft candles and blue lighting that accentuate the drinking experience. The South Loop location features live music twice a week and have a wide range of musical acts,  from jazz to blue to R&B.'
p174
sg8
S'https://irs0.4sqi.net/img/general/500x300/44995152_W2BTc0Ouy4LDTX9UnXNTCMt1-kng28inKFsW_Cqetkg.jpg'
p175
sg10
(lp176
S'Music'
p177
aS'Bar'
p178
ag13
asg25
S'http://www.mloungechicago.com'
p179
sg14
I0
sg15
S'M Lounge'
p180
sa(dp181
g2
(lp182
S'Night'
p183
ag13
asg6
S'A hit in the 60s and 70s,  The Backroom Club remains a popular spot for bargoers today to enjoy a good drink while listening to alternative/hybrid music.'
p184
sg8
S'http://www.chibarproject.com/Reviews/Hideout/HideoutFrisbee.jpg'
p185
sg10
(lp186
S'Music'
p187
aS'Bar'
p188
ag13
asg14
I0
sg15
S'The Backroom'
p189
sa(dp190
g2
(lp191
S'Night'
p192
ag13
asg6
S'One of the best dive bars in the city in the heart of Old Town. This cozy,  laid-back spot has a storied past,  funky art and a jukebox for customers to pick the tunes. Cash only.'
p193
sg8
S'https://irs0.4sqi.net/img/general/500x300/WK6paT6nOobTzMov9UvdGJ21FXe5FIBYVQr2oP9lDoA.jpg'
p194
sg10
(lp195
S'Bar'
p196
ag13
ag13
asg25
S'http://www.theoldtownalehouse.com'
p197
sg14
I0
sg15
S'Old Town Ale House'
p198
sa(dp199
g2
(lp200
S'Night'
p201
ag13
asg6
S"Founded in 2010 in the Logan Square neighborhood,  Revolution is one of the city's top craft breweries. Visitors can catch a brewery tour and taste some samples at the taproom Wednesday through Sunday or head to Revolution's Brewpub about a 1.5 mile away for beers and pub fare."
p202
sg8
S'https://irs0.4sqi.net/img/general/500x300/A8LQimmmRYaI6BdsNrEehLrAz_ausI3aL76K3rQ-lsA.jpg'
p203
sg10
(lp204
S'Bar'
p205
ag13
ag13
asg25
S'http://revbrew.com'
p206
sg14
I0
sg15
S'Revolution Brewing'
p207
sa(dp208
g2
(lp209
S'Night'
p210
ag13
asg6
S"Owned and operated by famed chef Grant Achatz,  this swanky West Loop lounge gives some serious attention to cocktails. While it does take walk-ins,  it's better to purchase tickets for a reservation in advance."
p211
sg8
S'http://i.ytimg.com/vi/9EBxrBXd198/maxresdefault.jpg'
p212
sg10
(lp213
S'Bar'
p214
ag13
ag13
asg14
I0
sg15
S'The Aviary'
p215
sa(dp216
g2
(lp217
S'Night'
p218
ag13
asg6
S"A travel-themed bar in Bucktown with 26 taps and over 100 bottles of beer from around the world to choose from. It's a neighborhood favorite that also features a morning coffee menu."
p219
sg8
S'https://irs0.4sqi.net/img/general/500x300/33190_covj74VCsDqMpow2r2GK83y5iGD5GqOOqHnHGgaIPsk.jpg'
p220
sg10
(lp221
S'Bar'
p222
ag13
ag13
asg25
S'http://maproom.com'
p223
sg14
I1
sg15
S'The Map Room'
p224
sa(dp225
g2
(lp226
S'Night'
p227
ag13
asg6
S'A beer-centric neighborhood spot in Andersonville that speacializes in Belgian-focused eats,  including their famous mussels and frites.'
p228
sg8
S'https://irs0.4sqi.net/img/general/500x300/35873760_k0IEjwo3zTLNhia5-vRgzh7L8FKJLafH1H6CV2yc_l8.jpg'
p229
sg10
(lp230
S'Bar'
p231
ag13
ag13
asg25
S'http://hopleaf.com'
p232
sg14
I1
sg15
S'Hopleaf '
p233
sa(dp234
g2
(lp235
S'Night'
p236
ag13
asg6
S"This James Beard Award-winning bar features a seasonally rotating cocktail list in an elegant,  modern setting in Chicago's Wicker Park neighborhood."
p237
sg8
S'https://irs0.4sqi.net/img/general/500x300/183237_bAyfIIgVYYl7Dj0CQVweWjno3F2Ax_zuXm_qmwkYc2E.jpg'
p238
sg10
(lp239
S'Bar'
p240
ag13
ag13
asg25
S'http://theviolethour.com'
p241
sg14
I1
sg15
S'Violet Hour'
p242
sa(dp243
g2
(lp244
S'Night'
p245
ag13
asg6
S'Founded by the beverage director of Three Dots & a Dash,  Lost Lake is a cocktail bar on the border of Avondale and Logan Square that boosts a tiki theme. Specializing in tropical drinks,  guests can also order Chinese take-out from next door.'
p246
sg8
S'https://irs0.4sqi.net/img/general/500x300/3308863_YBgDnUEflCZszvoZn8fjZjSRYI502ZHHlYnnXDp7LKE.jpg'
p247
sg10
(lp248
S'Bar'
p249
ag13
ag13
asg25
S'http://lostlaketiki.com'
p250
sg14
I0
sg15
S'Lost Lake'
p251
sa(dp252
g2
(lp253
S'Night'
p254
ag13
asg6
S'Guests can find old-school arcade games,  craft beer and signature cocktails at both of the locations in Lakeview and River North neighborhoods.'
p255
sg8
S'https://irs0.4sqi.net/img/general/500x300/78228849_Eh2rfDl_rZlv4baRIWvWGsEmt3zdwm2LrbfcXr7A1QU.jpg'
p256
sg10
(lp257
S'Bar'
p258
ag13
ag13
asg25
S'http://hqbeercade.com/rivernorth'
p259
sg14
I0
sg15
S'Headquarters Beercade'
p260
sa(dp261
g2
(lp262
S'Night'
p263
ag13
asg6
S'A lively punk rock bar that features DJs spinning a variety of music,  including Rock & Roll,  Punk Rock,  Metal,  Ska & Reggae,  Soul,  R&B and Hard Country. It has more than 750 varities of whiskies,  and plays host to regular art openings,  film screenings & beer tastings as well.'
p264
sg8
S'http://media.tumblr.com/08914ce3e1e2085ebf3a57548f7a43a0/tumblr_inline_mn3pxccG8n1qkcv4j.jpg'
p265
sg10
(lp266
S'Bar'
p267
aS'Music'
p268
ag13
asg14
I0
sg15
S"Delilah's"
p269
sa(dp270
g2
(lp271
g13
ag13
asg6
S'Voted as having the Best Pancakes in Chicago,  WildBerry Pancakes is a great breakfast joint that serves classic breakfast options as well as fresh lunch dishes. The establishment prides itself in serving local farm fresh ingredients and baking its own bread.'
p272
sg8
S'https://irs0.4sqi.net/img/general/500x300/2921863_7kRQxu0ZwTb9MEPY8_CXZgiQZmUPqKZAszm2NDZVz7A.jpg'
p273
sg10
(lp274
S'Food'
p275
aS'Lunch'
p276
ag13
asg25
S'http://wildberrycafe.com'
p277
sg14
I0
sg15
S'Wildberry Pancakes & Cafe'
p278
sa(dp279
g2
(lp280
g13
ag13
asg6
S'This neighborhood cafe in Wicker Park features a rotating menu of seasonal items in a casual,  inviting environment.'
p281
sg8
S'https://irs0.4sqi.net/img/general/500x300/45487_wPpfO4MOFwxtTrYauuNYqas_K61Wmg7b_HFABxTbyks.jpg'
p282
sg10
(lp283
S'Food'
p284
aS'Lunch'
p285
ag13
asg25
S'http://birchwoodkitchen.com'
p286
sg14
I0
sg15
S'Birchwood Kitchen'
p287
sa(dp288
g2
(lp289
g13
ag13
asg6
S'This cozy Ravenswood eatery offers a variety of unique breakfast,  lunch and brunch options.'
p290
sg8
S'https://irs0.4sqi.net/img/general/500x300/27371544_zoiILR2yjgkoiwCgODNi_Fr7a1xRl7XOrE33l8u5nXA.jpg'
p291
sg10
(lp292
S'Food'
p293
aS'Lunch'
p294
ag13
asg25
S'http://overeasycafechicago.com'
p295
sg14
I0
sg15
S'Over Easy Cafe'
p296
sa(dp297
g2
(lp298
g13
ag13
asg6
S'Yolk is a fun breakfast joint that experiments with creative breakfasts,  specialty juices,  and its own label of premium coffee. Its appeal to the urban social scene has allowed the restaurant to shake up the breakfast and lunch scene.'
p299
sg8
S'https://irs0.4sqi.net/img/general/500x300/29159_oDRslghT2gyob0d-GZ2j5yjw4q370Q0EyQCr5ZLvxWw.jpg'
p300
sg10
(lp301
S'Food'
p302
aS'Lunch'
p303
ag13
asg25
S'http://www.eatyolk.com'
p304
sg14
I0
sg15
S'Yolk River North'
p305
sa(dp306
g2
(lp307
g13
ag13
asg6
S'A rustic BYOB neighborhood joint in Ukrainian Village featuring American comfort food for breakfast until late night.'
p308
sg8
S'https://irs0.4sqi.net/img/general/500x300/1326173_r6Hed5T5a4n8fDwqz7_szn499Ww2rV6E25rs1Cl9xjg.jpg'
p309
sg10
(lp310
S'Food'
p311
aS'Lunch'
p312
ag13
asg25
S'http://www.emptybottle.com/bite.htm'
p313
sg14
I0
sg15
S'Bite Cafe'
p314
sa(dp315
g2
(lp316
g13
ag13
asg6
S'Located right on the Chicago River,  this casual restaurant offers a range of comfort food and a great view of downtown Chicago.'
p317
sg8
S'https://irs0.4sqi.net/img/general/500x300/ktBZdeWC7ttGviXKa08NUpTXQFuPxzkCZSmLmyYXCA0.jpg'
p318
sg10
(lp319
S'Food'
p320
aS'Lunch'
p321
ag13
asg25
S'http://www.bridgehousetavern.com'
p322
sg14
I0
sg15
S'Bridge House Tavern'
p323
sa(dp324
g2
(lp325
g13
ag13
asg6
S'Established in 2012,  this gourmet donut shop has expanded to six locations in the city. Choose from classic flavors like the Old Fashioned to more unique offerings,  such as Key Lime Pie.'
p326
sg8
S'https://irs0.4sqi.net/img/general/500x300/88945301_trBDxmeokNkLj-x-hWtki_80dhh6yIoekkal1C8OtX4.jpg'
p327
sg10
(lp328
S'Food'
p329
aS'Lunch'
p330
ag13
asg25
S'http://www.goglazed.com'
p331
sg14
I0
sg15
S'Glazed & Infused'
p332
sa(dp333
g2
(lp334
g13
ag13
asg6
S"Metropolis Coffee Company is one of Chicago's top small batch artisan coffee roasters. Its Edgewater cafe is a neighborhood favorite,  and features fresh-roasted coffees,  pastries and sandwiches."
p335
sg8
S'https://irs0.4sqi.net/img/general/500x300/ECDIVXO53PWATVKHKFTCP3ZROZA2USOBEFKQZXI1T1AARU3C.jpg'
p336
sg10
(lp337
S'Food'
p338
aS'Lunch'
p339
ag13
asg25
S'http://www.metropoliscoffee.com'
p340
sg14
I0
sg15
S'Metropolis Coffee Company'
p341
sa(dp342
g2
(lp343
g13
ag13
asg6
S'A cozy BYOB breakfast and lunch spot in Lakeview that also features a coffee and pastry counter.'
p344
sg8
S'https://irs0.4sqi.net/img/general/500x300/4085816_urc5IjmLdo5SL3QYVQUiRRJtCcdOILWs_thlIDMs-UY.jpg'
p345
sg10
(lp346
S'Food'
p347
aS'Lunch'
p348
ag13
asg25
S'http://bakinandeggschicago.com'
p349
sg14
I0
sg15
S'Bakin & Eggs'
p350
sa(dp351
g2
(lp352
g13
ag13
asg6
S'Open 24 hours,  this casual dining spot is the perfect place to grab breakfast,  lunch or dinner anytime of the day.'
p353
sg8
S'https://irs0.4sqi.net/img/general/500x300/42502301_6cnsBshqKbnt8C4FiHfr_FEGQQZ95Qf1s4oAnNwbCu8.jpg'
p354
sg10
(lp355
S'Food'
p356
aS'Lunch'
p357
ag13
asg25
S'http://ellyspancakehouse.com'
p358
sg14
I0
sg15
S'Ellys Pancake House'
p359
sa(dp360
g2
(lp361
g13
ag13
asg6
S'With a menu inspired by Mexican street food,  this is one of the best places in the city to grab tacos and margaritas. This fun,  lively Wicker Park joint is open late night and is cash only.'
p362
sg8
S'https://justthefrostingplease.files.wordpress.com/2011/10/img_0122.jpg'
p363
sg10
(lp364
S'Food'
p365
aS'Lunch'
p366
ag13
asg14
I0
sg15
S'Big Star'
p367
sa(dp368
g2
(lp369
g13
ag13
asg6
S"Opened in 1934,  the Billy Goat Tavern is a Chicago classic. The no-frills spot offers simple diner fare,  but is famous for its 'cheezborger."
p370
sg8
S'https://irs0.4sqi.net/img/general/500x300/fMVEh1EBWs7rnOud64TEgy-kZgHmEUa4vErC2bwWdAU.jpg'
p371
sg10
(lp372
S'Food'
p373
aS'Lunch'
p374
ag13
asg25
S'http://billygoattavern.com'
p375
sg14
I0
sg15
S'Billy Goat Tavern'
p376
sa(dp377
g2
(lp378
g13
ag13
asg6
S'Deemed one of Chicago\xe2\x80\x99s best bakeries,  this Lincoln Park shop offers a rotating menu of French pastries,  bread,  sandwiches and salads. A perfect spot to grab breakfast or lunch.'
p379
sg8
S'https://irs0.4sqi.net/img/general/500x300/jESB27oNPf1QnRRgE4Gt4eu7us9AF2T-7q8sww7HenE.jpg'
p380
sg10
(lp381
S'Food'
p382
aS'Lunch'
p383
ag13
asg25
S'http://www.floriole.com'
p384
sg14
I0
sg15
S'Floriole Cafe and Bakery'
p385
sa(dp386
g2
(lp387
g13
ag13
asg6
S'With two locations in Wicker Park and Logan Square,  this bar has nearly 40 arcade games,  two dozen rotating craft beers and over 50 whiskeys. The Logan Square spot also has pool tables.'
p388
sg8
S'http://svcdn.simpleviewinc.com/v3/cache/chicago/4889DDE28F0255EBEE5E06D0574856C7.jpg'
p389
sg10
(lp390
S'Food'
p391
aS'Lunch'
p392
ag13
asg14
I0
sg15
S'Emporium'
p393
sa(dp394
g2
(lp395
g13
ag13
asg6
S'Founded in 1950,  this fried chicken chain is a Chicago favorite. There are multiple locations throughout the city,  but each serves some of the best fried chicken with signature sauces.'
p396
sg8
S'https://irs0.4sqi.net/img/general/500x300/xut43BH9mwW-IqVW1oq9sAFh1bcVjxHJUdw-9KPmk2E.jpg'
p397
sg10
(lp398
S'Food'
p399
aS'Lunch'
p400
ag13
asg25
g26
sg14
I0
sg15
S'Harolds Chicken Shack'
p401
sa(dp402
g2
(lp403
g13
ag13
asg6
S'A trip to Chicago\xe2\x80\x99s \xe2\x80\x9cLittle India\xe2\x80\x9d will be well worth it. Udupi is one of the many gems on Devon Avenue that specializes in southern Indian dishes and is perfect for the traditionalist. Vegetarian dishes only.'
p404
sg8
S'https://irs0.4sqi.net/img/general/500x300/104922_a7S0rG98o27srFD8RiVYp5eQNhFHNvJq7hSuUqBlcsE.jpg'
p405
sg10
(lp406
S'Food'
p407
aS'Lunch'
p408
ag13
asg25
S'http://www.udupipalace.com'
p409
sg14
I0
sg15
S'Udupi Palace'
p410
sa(dp411
g2
(lp412
g13
ag13
asg6
S'Located just south of the Lincoln Park Zoo,  the Patio serves casual fare in an al fresco setting. Overlooking the pond at Nature Boardwalk,  it offers unparalleled views of the zoo and the Chicago skyline.'
p413
sg8
S'https://irs0.4sqi.net/img/general/500x300/280513_dS2V_vYZSyeSMmPTVH5XRO9bni_efKU08EvrPr3MUfI.jpg'
p414
sg10
(lp415
S'Food'
p416
aS'Lunch'
p417
ag13
asg25
S'http://www.willistower.com'
p418
sg14
I0
sg15
S'The Patio at Cafe Brauer'
p419
sa(dp420
g2
(lp421
g13
ag13
asg6
S"This is one of the best spots to grab a drink or quick-bite during the summer months. The outdoor restaurant and bar is located along the lake,  and offers some of the best views of Chicago's downtown and beaches."
p422
sg8
S'https://irs0.4sqi.net/img/general/500x300/9281492_XJaMrdiSvcNZQz8ZV-rEEOwaA_pVLYTgeR8kM-9wvbA.jpg'
p423
sg10
(lp424
S'Food'
p425
aS'Lunch'
p426
ag13
asg25
S'http://oakstreetbeach.com'
p427
sg14
I0
sg15
S'Oak Street Beach Food & Drink'
p428
sa(dp429
g2
(lp430
g13
ag13
asg6
S'This specialty foods grocery store is also a great spot for breakfast or lunch. The casual Lakeview cafe offers simple,  modern comfort food.'
p431
sg8
S'https://irs0.4sqi.net/img/general/500x300/BVxZ6ztuIIag9DC2fh0QZh_emsnuPrLH6ObUQP_V0i4.jpg'
p432
sg10
(lp433
S'Food'
p434
aS'Lunch'
p435
ag13
asg25
S'http://www.southportgrocery.com'
p436
sg14
I0
sg15
S'Southport Grocery & Caf\xc3\xa9'
p437
sa(dp438
g2
(lp439
g13
ag13
asg6
S"One of Chicago's most revered 'farm-to-table' restaurants for more than 15 years,  this Logan Square restaurant is a laid-back,  local favorite."
p440
sg8
S'https://irs0.4sqi.net/img/general/500x300/10040204_KdgyuPNRptApFJbqiH_tE6n1AXNcZD8WnEt4G9r8XtU.jpg'
p441
sg10
(lp442
S'Food'
p443
aS'Dinner'
p444
ag13
asg25
S'http://lulacafe.com'
p445
sg14
I0
sg15
S'Lula Cafe'
p446
sa(dp447
g2
(lp448
g13
ag13
asg6
S"Famed Chicago chef Paul Kahan's flagship restaurant,  this elegant,  fine-dining establishment highlights local,  farm-fresh ingredients."
p449
sg8
S'https://irs0.4sqi.net/img/general/500x300/zkU04KVyvgCpEwuhmw4eCNftRX7T91f7pjkpJMjlhqA.jpg'
p450
sg10
(lp451
S'Food'
p452
aS'Dinner'
p453
ag13
asg25
S'http://blackbirdrestaurant.com'
p454
sg14
I0
sg15
S'Blackbird'
p455
sa(dp456
g2
(lp457
g13
ag13
asg6
S'Established in 2010,  this Logan Square spot has quickly become a destination for ramen lovers.'
p458
sg8
S'https://irs0.4sqi.net/img/general/500x300/2333877_XkcoUQwbJBj-7CyLABzRB9njOCU8QucYdDu1-u_6JPE.jpg'
p459
sg10
(lp460
S'Food'
p461
aS'Dinner'
p462
ag13
asg25
S'http://www.wasabichicago.com'
p463
sg14
I0
sg15
S'Wasabi'
p464
sa(dp465
g2
(lp466
g13
ag13
asg6
S'This Andersonville restaurant features seasonally-inspired,  rustic Italian dishes in a cozy setting.'
p467
sg8
S'https://irs0.4sqi.net/img/general/500x300/15475244_tnICpMYkDJzWK2OLqRqj3UuxZPfQ667-MnhOoMryPNM.jpg'
p468
sg10
(lp469
S'Food'
p470
aS'Dinner'
p471
ag13
asg25
S'http://anteprimachicago.net'
p472
sg14
I0
sg15
S'Anteprima'
p473
sa(dp474
g2
(lp475
g13
ag13
asg6
S'Chicago is known for its deep-dish pizza and this is one of its bests. This casual pub is a local favorite,  and is open late night.'
p476
sg8
S'https://irs0.4sqi.net/img/general/500x300/7717326_x2K-ZgnEwuhdbge2gCS9BhMNjlZHBmtEsgMYZgqqv_w.jpg'
p477
sg10
(lp478
S'Food'
p479
aS'Dinner'
p480
ag13
asg25
S'http://pequodspizza.com'
p481
sg14
I1
sg15
S'Pequods'
p482
sa(dp483
g2
(lp484
g13
ag13
asg6
S'Located within the grounds of Lincoln Park,  North Pond specializes in dishes that highlight local and seasonal fare.'
p485
sg8
S'http://www.d2dphotos.com/wp-content/uploads/2011/04/North-Pond-6208.jpg'
p486
sg10
(lp487
S'Food'
p488
aS'Dinner'
p489
ag13
asg14
I0
sg15
S'North Pond'
p490
sa(dp491
g2
(lp492
g13
ag13
asg6
S"Located in the heart of Pilsen's art district,  this rustic,  modern restaurant serves some of the best seasonally-inspired cuisine in the city."
p493
sg8
S'https://irs0.4sqi.net/img/general/500x300/SPEOA1I0JULXYCLMJSISTQQBOBLJJK2M2QAC3K4U2IYQWTI2.jpg'
p494
sg10
(lp495
S'Food'
p496
aS'Dinner'
p497
ag13
asg25
S'http://www.nightwoodrestaurant.com'
p498
sg14
I0
sg15
S'Nightwood'
p499
sa(dp500
g2
(lp501
g13
ag13
asg6
S'A trendy,  upscale restaurant by reality TV stars Bill & Giuliana Rancic. The River North spot,  which offers modern Italian fare,  is a place to see and be seen.'
p502
sg8
S'https://irs0.4sqi.net/img/general/500x300/39250903_AjV410yxnCKDZ3MwREujrfiCpM5fovqYprvyiZDOyxs.jpg'
p503
sg10
(lp504
S'Food'
p505
aS'Dinner'
p506
ag13
asg25
S'http://rpmitalian.com'
p507
sg14
I0
sg15
S'RPM Italian'
p508
sa(dp509
g2
(lp510
g13
ag13
asg6
S'An upscale diner in Chicago\xe2\x80\x99s West Loop offering dishes from omelettes to foie gras. Its cheeseburger,  however,  is known as one of the best in the city.'
p511
sg8
S'http://chicago.grubstreet.com/upload/2012/11/check_out_au_chevals_english_c/20121129_electric_diner_560x372.jpg'
p512
sg10
(lp513
S'Food'
p514
aS'Dinner'
p515
ag13
asg14
I0
sg15
S'Au Cheval'
p516
sa(dp517
g2
(lp518
S'Afternoon'
p519
ag13
asg6
S'If you want to see the Bulls or the Blackhawks,  you\xe2\x80\x99ll need to make a trip to this sprawling Near West Side sports arena. When it\xe2\x80\x99s not hosting hockey or basketball,  it\xe2\x80\x99s the venue of choice for gigantic touring acts like Beyonc\xc3\xa9 and Lady Gaga.'
p520
sg8
S'http://image2.stadiumjourney.com/images/stadiums/103_300_Level_Nosebleeds_Inside_United_Center.jpg'
p521
sg10
(lp522
S'Sports'
p523
ag13
ag13
asg14
I0
sg15
S'United Center'
p524
sa(dp525
g2
(lp526
S'Afternoon'
p527
ag13
asg6
S"Located on Chicago's south side,  U.S. Cellular Field is home to the 2005 World Series Champions,  the Chicago White Sox. More modern and spacious than Wrigley,  it also offers creative stadium fare like bacon on a stick and chicken and waffle sandwiches."
p528
sg8
S'https://irs0.4sqi.net/img/general/500x300/34316401_7gLrzg4hc98xUIlv6ujLR3cIe_irzPBTo5TFn4s88GM.jpg'
p529
sg10
(lp530
S'Sports'
p531
ag13
ag13
asg25
S'http://mlb.com'
p532
sg14
I0
sg15
S'US Cellular Field'
p533
sa(dp534
g2
(lp535
S'Afternoon'
p536
ag13
asg6
S'During football season,  Soldier Field is the perfect place to tailgate and catch a game. Opened in 1924,  it is the oldest NFL stadium. During the offseason,  it serves as one of Chicago\xe2\x80\x99s largest concert venues.'
p537
sg8
S'https://irs0.4sqi.net/img/general/500x300/39692369_UBi0AnfZOo7Gg_7JmkQI_n1eb4X9IKzEt_sqJo9PUlg.jpg'
p538
sg10
(lp539
S'Sports'
p540
ag13
ag13
asg25
S'http://www.soldierfield.net'
p541
sg14
I0
sg15
S'Soldier Field'
p542
sa(dp543
g2
(lp544
S'Afternoon'
p545
ag13
asg6
S'Located on Chicago\xe2\x80\x99s northside,  Wrigley Field is the second-oldest major league ballpark and has been the home to the Cub\xe2\x80\x99s for 99 seasons. The surrounding neighborhood known as \xe2\x80\x9cWrigleyville\xe2\x80\x9d offers sports fans a variety of restaurants and bars.'
p546
sg8
S'http://lakeshorepublicmedia.org/wp-content/uploads/2013/07/Wrigley.jpg'
p547
sg10
(lp548
S'Sports'
p549
aS'Landmark'
p550
ag13
asg14
I1
sg15
S'Wrigley Field'
p551
sa(dp552
g2
(lp553
S'Morning'
p554
ag13
asg6
S'Enjoy practicing your game or playing miniature golf at this picturesque driving range complete with waterfalls & footbridges.'
p555
sg8
S'https://irs0.4sqi.net/img/general/500x300/724939_y9rWUf3kP-Z_cJT65HExPS-TabBuXAH4id0ae997SEE.jpg'
p556
sg10
(lp557
S'Sports'
p558
ag13
ag13
asg25
g26
sg14
I0
sg15
S'Diversey Driving Range'
p559
sa(dp560
g2
(lp561
S'Afternoon'
p562
ag13
asg6
S'Toyota Park stadium is the home of Chicago Fire Soccer and offers live entertainment for world-class concerts and other sporting events.'
p563
sg8
S'https://irs0.4sqi.net/img/general/500x300/wfdhb2DPaUZwLzthxBtJ2tviDIUle8k_glg5MfmbJwQ.jpg'
p564
sg10
(lp565
S'Sports'
p566
ag13
ag13
asg25
g26
sg14
I0
sg15
S'Toyota Park'
p567
sa(dp568
g2
(lp569
S'Afternoon'
p570
ag13
asg6
S'Allstate Arena is a multi-purpose arena. It is home to the Chicago Wolves of the AHL and the Chicago Sky of the WNBA.'
p571
sg8
S'http://farm3.static.flickr.com/2717/4453611914_7bf42ab5fe_b.jpg'
p572
sg10
(lp573
S'Sports'
p574
ag13
ag13
asg14
I0
sg15
S'Allstate Arena'
p575
sa(dp576
g2
(lp577
S'Afternoon'
p578
ag13
asg6
S'Ryan Field is a football stadium on the campus of Northwestern University. It is the home of the Northwestern Wildcats football team.'
p579
sg8
S'https://irs0.4sqi.net/img/general/500x300/36806479_GD6cFMAQDyoIOCS9eYAU2Gd0NMuEuvgsGR2196DM9j4.png'
p580
sg10
(lp581
S'Sports'
p582
ag13
ag13
asg25
S'http://www.nusports.com/facilities/ryan-field.html'
p583
sg14
I0
sg15
S'Ryan Field'
p584
sa(dp585
g2
(lp586
S'Afternoon'
p587
ag13
asg6
S'BASH is the top training facility in Chicago for baseball and softball players year-round. Visitors looking to practice their swing or squeeze in a good workout can make use of the pitching machines and batting cages.'
p588
sg8
S'https://irs0.4sqi.net/img/general/500x300/360704_A315Wo0846Pyc5b0Z19Zrq0Zk6bbSVUChptJmQdt6qw.jpg'
p589
sg10
(lp590
S'Sports'
p591
ag13
ag13
asg25
g26
sg14
I0
sg15
S'BASH Sports Academy'
p592
sa(dp593
g2
(lp594
S'Night'
p595
aS'Afternoon'
p596
asg6
S'Chicago Theatre is a landmark performing arts venue for stage plays,  magic shows,  comedy,  speeches,  and popular music concerts. '
p597
sg8
S'http://photos.cinematreasures.org/production/photos/23573/1314325805/large.jpg?1314325805'
p598
sg10
(lp599
S'Theater'
p600
ag13
ag13
asg14
I1
sg15
S'Chicago Theater'
p601
sa(dp602
g2
(lp603
S'Night'
p604
aS'Afternoon'
p605
asg6
S'This state-of-the-art,  two-theater complex is located in Chicago\xe2\x80\x99s theater district,  and is just steps from award-winning dining and accommodation options. The modern stage hosts original and familiar productions.'
p606
sg8
S'https://irs0.4sqi.net/img/general/500x300/6610243_AIiEbCAbDS5HU2ixZdVPokGhY39ICxcXeqFaewXxTWU.jpg'
p607
sg10
(lp608
S'Theater'
p609
ag13
ag13
asg25
g26
sg14
I0
sg15
S'Goodman Theatre'
p610
sa(dp611
g2
(lp612
S'Night'
p613
aS'Afternoon'
p614
asg6
S'Originally built as a backdrop for Vauville in the 1920s,  this theatre has gone on to host several pre-Broadway hits.'
p615
sg8
S'https://irs0.4sqi.net/img/general/500x300/-HM9IHZyFw1JIBXhd8FjSDKymhK3jyEEAxAhjJtWXWk.jpg'
p616
sg10
(lp617
S'Theater'
p618
ag13
ag13
asg25
S'http://www.broadwayinchicago.com'
p619
sg14
I0
sg15
S'Cadillac Palace Theater'
p620
sa(dp621
g2
(lp622
S'Night'
p623
aS'Afternoon'
p624
asg6
S"Built in 1906,  this vintage theater is a showplace from an earlier era that's still one of the country's major touring Broadway houses."
p625
sg8
S'https://irs0.4sqi.net/img/general/500x300/8592322_JJDsrWOAAsn79Pvht_NB8xJE6IFSrvTL_qLm2A85qeY.jpg'
p626
sg10
(lp627
S'Theater'
p628
ag13
ag13
asg25
g26
sg14
I0
sg15
S'Bank of America Theater'
p629
sa(dp630
g2
(lp631
S'Night'
p632
aS'Afternoon'
p633
asg6
S'The Mercury Theatre is an intimate theater that hosts musicals & performances from local troupes.'
p634
sg8
S'https://irs0.4sqi.net/img/general/500x300/1071629_jC4cY45kphcbZEdd6FeT0Cv7YeBNuUavicHvRCZYaiY.jpg'
p635
sg10
(lp636
S'Theater'
p637
ag13
ag13
asg25
S'http://mercurytheaterchicago.com/index.html'
p638
sg14
I0
sg15
S'Mercury Theater'
p639
sa(dp640
g2
(lp641
S'Night'
p642
aS'Afternoon'
p643
asg6
S'The Music Box Theatre is the premiere venue in Chicago for independent and foreign films. It currently has the largest movie theater space in the city.'
p644
sg8
S'https://irs0.4sqi.net/img/general/500x300/RJ8851I4yu-KVN_x8ZRNLxI1DpkijFuArmKwUUfoqRU.jpg'
p645
sg10
(lp646
S'Theater'
p647
ag13
ag13
asg25
S'http://www.musicboxtheatre.com'
p648
sg14
I1
sg15
S'Music Box Theatre'
p649
sa(dp650
g2
(lp651
S'Night'
p652
aS'Afternoon'
p653
asg6
S'Located in the Water Tower Water Works right on Michigan Avenue,  the theatre specializes in original shows & contemporary literary adaptations. A truly unique visual performance venue.'
p654
sg8
S'https://irs0.4sqi.net/img/general/500x300/u0mNeGs0rLCSl0osVmbfc2o-F9_bMtaRzyoj03T3iL8.jpg'
p655
sg10
(lp656
S'Theater'
p657
ag13
ag13
asg25
S'http://www.lookingglasstheatre.org'
p658
sg14
I0
sg15
S'Lookingglass Theatre Company'
p659
sa(dp660
g2
(lp661
S'Night'
p662
aS'Afternoon'
p663
asg6
S'Built as a movie palace in 1926,  this historic theater was renovated in 1998 and now plays hosts to touring Broadway productions.'
p664
sg8
S'https://irs0.4sqi.net/img/general/500x300/134811_fXT2d0K3wxwImCB-5oTWEW4DlDng2xPQnjYqSNnw_6I.jpg'
p665
sg10
(lp666
S'Theater'
p667
ag13
ag13
asg25
S'http://www.broadwayinchicago.com'
p668
sg14
I0
sg15
S'Oriental Theatre'
p669
sa(dp670
g2
(lp671
S'Night'
p672
aS'Afternoon'
p673
asg6
S'As a production company,  Theater Wit is an art theater that seeks to be the hub of the Chicago neighborhood theater scene.'
p674
sg8
S'http://s3-media1.fl.yelpcdn.com/bphoto/XKr1lBCNXhKxsv3C1s162Q/ls.jpg'
p675
sg10
(lp676
S'Theater'
p677
ag13
ag13
asg14
I0
sg15
S'Theatre Wit'
p678
sa(dp679
g2
(lp680
S'Night'
p681
aS'Afternoon'
p682
asg6
S'A newly built theatre in the heart of the Magnificent Mile,  the theatre owned by Broadway also offers dining and theatre packages at nearby restaurants.'
p683
sg8
S'https://irs0.4sqi.net/img/general/500x300/36305030_ma3C2zYewo-vi-tPzF8wg5EuKkR70pWZs-yG0wWkDwI.jpg'
p684
sg10
(lp685
S'Theater'
p686
ag13
ag13
asg25
S'http://www.hollisterco.com'
p687
sg14
I0
sg15
S'Broadway Playhouse at Water Tower Place'
p688
sa(dp689
g2
(lp690
S'Morning'
p691
aS'Afternoon'
p692
asg6
S'The Art Institute of Chicago is the second-largest art museum in the United States most famous for its collections of Impressionist,  Post-Impressionist,  and American paintings.'
p693
sg8
S'https://irs0.4sqi.net/img/general/500x300/149161_eHMuPXA7vRlIvNmhgR1I7LsphuIHm7eFZJ1ML6R9SXk.jpg'
p694
sg10
(lp695
S'Museum'
p696
ag13
ag13
asg25
S'http://www.artinstituteofchicago.org'
p697
sg14
I1
sg15
S'The Art Institute of Chicago'
p698
sa(dp699
g2
(lp700
S'Morning'
p701
aS'Afternoon'
p702
asg6
S'Described as \xe2\x80\x9clandscape art under glass\xe2\x80\x9d when it opened in 1908,  the Garfield Park Conservatory is one of the largest of its kind in the nation. Inside,  visitors will find 120, 000 plants spread across 1.6 acres. A popular rain-or-shine destination for nature lovers,  the conservatory hosts seasonal flower shows as well as occasional concerts and events.'
p703
sg8
S'https://irs0.4sqi.net/img/general/500x300/243070_OYxrTQdPqUBYXRvPta-dVWAXgFcN7BjvzLOc_dDkGS4.jpg'
p704
sg10
(lp705
S'Museum'
p706
ag13
ag13
asg25
S'http://garfieldconservatory.org'
p707
sg14
I0
sg15
S'Garfield Park Conservatory'
p708
sa(dp709
g2
(lp710
S'Morning'
p711
aS'Afternoon'
p712
asg6
S'Take a trip to Lincoln Park,  where visitors can learn about the natural world at the Peggy Notebaert Nature Museum. Outside,  a series of nature trails take explorers past a lagoon and a prairie garden,  while indoor attractions include interactive ecosystems and the 2, 700-square-foot Judy Istock Butterfly Haven.'
p713
sg8
S'https://irs0.4sqi.net/img/general/500x300/21210886_QUrm7xqkD7aNwe8yHowib1twhmHCtm-enTiOJNbVeWQ.jpg'
p714
sg10
(lp715
S'Museum'
p716
ag13
ag13
asg25
S'http://www.naturemuseum.org'
p717
sg14
I0
sg15
S'Peggy Notebaert Nature Museum'
p718
sa(dp719
g2
(lp720
S'Morning'
p721
aS'Afternoon'
p722
asg6
S'The Field Museum is a premier natural history museum.'
p723
sg8
S'https://irs0.4sqi.net/img/general/500x300/449208_yFAW9icB0_go5XfyCkVlWXqNvQiRbwdI-sEPHXuYxg4.jpg'
p724
sg10
(lp725
S'Museum'
p726
ag13
ag13
asg25
S'http://www.fieldmuseum.org'
p727
sg14
I1
sg15
S'The Field Museum'
p728
sa(dp729
g2
(lp730
S'Morning'
p731
aS'Afternoon'
p732
asg6
S'Located next to the University of Chicago and boasting exhibits from the top innovators in the science world,  the Museum of Science and Industry provides a wide array of experiences that are both fun and educational for the whole family.'
p733
sg8
S'https://irs0.4sqi.net/img/general/500x300/37837410_1-5g5zj0O0EJIamTzHpkpp0R8FlNYxwUz3UVtkcTT3A.jpg'
p734
sg10
(lp735
S'Museum'
p736
ag13
ag13
asg25
S'http://www.msichicago.org'
p737
sg14
I1
sg15
S'Museum of Science and Industry'
p738
sa(dp739
g2
(lp740
S'Morning'
p741
aS'Afternoon'
p742
asg6
S'As the largest indoor aquarium in the world,  with more than 8000 aquatic animals,  the Shedd is one of the city\xe2\x80\x99s most popular attractions.'
p743
sg8
S'https://irs0.4sqi.net/img/general/500x300/126627612_QkQ5-qdeS9o39G6XFeH_g2TVtxrXQbRnSm9Bws-07SU.jpg'
p744
sg10
(lp745
S'Museum'
p746
ag13
ag13
asg25
g26
sg14
I1
sg15
S'Shedd Aquarium'
p747
sa(dp748
g2
(lp749
S'Morning'
p750
aS'Afternoon'
p751
asg6
S'The Planeterium is a premier public resource for learning about astronomy discoveries,  history and astrophysics.'
p752
sg8
S'https://irs0.4sqi.net/img/general/500x300/43119368_x9-CzoEKjLVS8mlAC7ZaueMb4_c4nJT3LTwotCiSOTw.jpg'
p753
sg10
(lp754
S'Museum'
p755
ag13
ag13
asg25
S'http://www.adlerplanetarium.org'
p756
sg14
I0
sg15
S'Adler Planetarium'
p757
sa(dp758
g2
(lp759
S'Morning'
p760
aS'Afternoon'
p761
asg6
S'This first Mexican cultural center in the Midwest and the largest in the nation featuring Mexican,  Latino,  and Chicano art and culture. '
p762
sg8
S'https://irs0.4sqi.net/img/general/500x300/9592_y-qXZ34I1pkdS5IUpe3-tCktYYYA1Xv0cIeRL5Dbd74.jpg'
p763
sg10
(lp764
S'Museum'
p765
ag13
ag13
asg25
g26
sg14
I0
sg15
S'National Museum of Mexican Art'
p766
sa(dp767
g2
(lp768
S'Morning'
p769
aS'Afternoon'
p770
asg6
S"This museum explores both Chicago and American history houses Chicago's most important collection of programs,  publications,  and online resources."
p771
sg8
S'https://irs0.4sqi.net/img/general/500x300/iYWBJQdysenTNmAtGUN_BaZKRL2Bn2z7GHSkRyVg2qg.jpg'
p772
sg10
(lp773
S'Museum'
p774
ag13
ag13
asg25
S'http://www.chicagohistory.org'
p775
sg14
I0
sg15
S'Chicago History Museum'
p776
sa(dp777
g2
(lp778
S'Morning'
p779
aS'Afternoon'
p780
asg6
S'Steps away from the Mag Mile,  the museum is one of Chicago\xe2\x80\x99s historic treasures. Once the home of 19th-century banker,  Samuel Mayo Nickerson,  the galleries transports visitors back to Chicago\xe2\x80\x99s Gilded Age.'
p781
sg8
S'https://irs0.4sqi.net/img/general/500x300/2907504_1Z_47ADx-pwfTMcapCEFYOn7NMYXIfQhs-pyIKpfhLQ.jpg'
p782
sg10
(lp783
S'Museum'
p784
ag13
ag13
asg25
g26
sg14
I0
sg15
S'Richard H. Driehaus Museum'
p785
sa(dp786
g2
(lp787
S'Morning'
p788
aS'Afternoon'
p789
asg6
S'The first and oldest museum dedicated to the study and conservation of African American history,  culture,  and art.'
p790
sg8
S'https://irs0.4sqi.net/img/general/500x300/jDwGC-PmfP0gHLkcinlWAm_PyXr-v5eIVjzw9uaxEs8.jpg'
p791
sg10
(lp792
S'Museum'
p793
ag13
ag13
asg25
S'http://www.dusablemuseum.org'
p794
sg14
I0
sg15
S'Dusable Museum of African American History'
p795
sa(dp796
g2
(lp797
S'Afternoon'
p798
aS'Morning'
p799
asg6
S'Wicker Park shop that carries a variety of products including home decor,  apothecary,  print,  ceramics,  and accessories for men + women from independent makers or small manufacturers.'
p800
sg8
S'https://c1.staticflickr.com/9/8188/8433376058_166cde8224.jpg'
p801
sg10
(lp802
S'Shopping'
p803
ag13
ag13
asg14
I0
sg15
S'Gather Home & Lifestyle'
p804
sa(dp805
g2
(lp806
S'Afternoon'
p807
aS'Morning'
p808
asg6
S"A home decor shop in Chicago's Andersonville neighborhood that carries a large selection of antique pieces and specializes in reupholstery of early to mid-20th century furniture."
p809
sg8
S'https://irs0.4sqi.net/img/general/500x300/40923799_phlULC5Lf3FLynt9CLmpq90mOXKHBbHafphq32S-Z-k.jpg'
p810
sg10
(lp811
S'Shopping'
p812
ag13
ag13
asg25
S'http://www.brimfieldus.com'
p813
sg14
I0
sg15
S'Brimfield'
p814
sa(dp815
g2
(lp816
S'Afternoon'
p817
aS'Morning'
p818
asg6
S"One of Chicago's popular shopping destinations thanks to its location on the 'Mag Mile.' Part mall,  part skyscraper,  it houses over 100 retail shops and restaurants."
p819
sg8
S'https://irs0.4sqi.net/img/general/500x300/h1plHr4__bgByLZPMEzeilST-sY0lbwk--3nz3UhaEc.jpg'
p820
sg10
(lp821
S'Shopping'
p822
ag13
ag13
asg25
S'http://www.ggp.com'
p823
sg14
I1
sg15
S'Water Tower Plaza'
p824
sa(dp825
g2
(lp826
S'Afternoon'
p827
aS'Morning'
p828
asg6
S'Chicago\xe2\x80\x99s Magnificent Mile is the perfect place for a fun and exciting shopping experience. It boasts a variety of retail shops,  designer boutiques,  department stores and dining options.'
p829
sg8
S'https://irs0.4sqi.net/img/general/500x300/BF5VUjSawMvavixG7vni57Qq6bMVuACrs-SrP1d8-FU.jpg'
p830
sg10
(lp831
S'Shopping'
p832
ag13
ag13
asg25
g26
sg14
I1
sg15
S'The Magnificent Mile'
p833
sa(dp834
g2
(lp835
S'Afternoon'
p836
aS'Morning'
p837
asg6
S"Located directly across from O'Hare International Airport in Rosemont,  this is the perfect stop for visitors looking for a bargin on designer goods."
p838
sg8
S'https://irs0.4sqi.net/img/general/500x300/60459156_5tEsqUS_JuH-pGPqro0r-ATC6j6v9aDZwsBTakTdZQY.jpg'
p839
sg10
(lp840
S'Shopping'
p841
ag13
ag13
asg25
g26
sg14
I0
sg15
S'Fashion Outlets of Chicago'
p842
sa(dp843
g2
(lp844
S'Afternoon'
p845
aS'Morning'
p846
asg6
S"An independent bookstore in the Lakeview that has been a neighborhood favorite for over 30 years. It's a one-stop shop to find the classics and newest titles."
p847
sg8
S'https://irs0.4sqi.net/img/general/500x300/13287591_-DC8hyQuMUa3NVI5Bwnl-klO0mkqv7wkjyAIGY5RYaA.jpg'
p848
sg10
(lp849
S'Shopping'
p850
ag13
ag13
asg25
S'http://unabridgedbookstore.tumblr.com'
p851
sg14
I0
sg15
S'Unabridged Bookstore'
p852
sa(dp853
g2
(lp854
S'Afternoon'
p855
aS'Morning'
p856
asg6
S'This online brand\xe2\x80\x99s has opened up its third freestanding store here in Chicago for clients looking to rent a look for a night. '
p857
sg8
S'https://irs0.4sqi.net/img/general/500x300/439904_PYrC-QDhboScydKGJ-TDXUF9ibWgSDgNafq__7yw9UA.jpg'
p858
sg10
(lp859
S'Shopping'
p860
ag13
ag13
asg25
g26
sg14
I0
sg15
S'Rent the Runway'
p861
sa(dp862
g2
(lp863
S'Afternoon'
p864
aS'Morning'
p865
asg6
S'A large resale/thrift store in Lincoln Park stocked with clothes & jewelry,  plus art,  furniture,  dishes,  accessories & lighting.'
p866
sg8
S'http://s3-media2.fl.yelpcdn.com/bphoto/_D3Nc58kxg7gTl73YnIFGw/ls.jpg'
p867
sg10
(lp868
S'Shopping'
p869
ag13
ag13
asg14
I0
sg15
S'New Elephant Resale'
p870
sa(dp871
g2
(lp872
S'Afternoon'
p873
aS'Morning'
p874
asg6
S"The Shops at Roosevelt Collection delivers upscale retail and sophisticated urban living in the heart of Chicago's South Loop."
p875
sg8
S'https://irs0.4sqi.net/img/general/500x300/216608_zfBMltnJVf3K91FeRKBy_CEW5sy6m4zKf_i7AyHhkBw.jpg'
p876
sg10
(lp877
S'Shopping'
p878
ag13
ag13
asg25
g26
sg14
I0
sg15
S'The Shops at Roosevelt Collection'
p879
sa(dp880
g2
(lp881
S'Morning'
p882
aS'Afternoon'
p883
asg6
S'Better known as \xe2\x80\x9cThe Bean\xe2\x80\x9d because of its unique,  bean-like shape,  Cloud Gate is one of Chicago\xe2\x80\x99s most well-known landmarks located in the heart of the city next to Millenium Park. Most tourists love to take a picutre in front of the iconic sculpture to experience a real piece of the Chicago cityscape.'
p884
sg8
S'https://irs0.4sqi.net/img/general/500x300/11371709_7Z5-3Vip71ytL9cEfbX1Pd8_Saxlni61z8uimGA0Bsg.jpg'
p885
sg10
(lp886
S'Outdoors'
p887
aS'Landmark'
p888
ag13
asg25
S'http://www.millenniumpark.org'
p889
sg14
I1
sg15
S'Cloudgate'
p890
sa(dp891
g2
(lp892
S'Morning'
p893
aS'Afternoon'
p894
asg6
S"Located in Chicago's central business district,  the park's most notable features are Millennium Park,  Buckingham Fountain,  the Art Institute of Chicago and the Museum Campus."
p895
sg8
S'https://irs0.4sqi.net/img/general/500x300/288482_X0l1NSf5K0mqme2x37l1qnWiRoyhHLTHN2jOMCbGWLU.jpg'
p896
sg10
(lp897
S'Outdoors'
p898
ag13
ag13
asg25
S'http://chicagoparkdistrict.com'
p899
sg14
I0
sg15
S'Grant Park'
p900
sa(dp901
g2
(lp902
S'Morning'
p903
aS'Afternoon'
p904
asg6
S"This tourist hot spot features shops,  eateries,  an IMAX cinema and sightseeing boat tours. The 150-foot-high Ferris wheel is one its most popular attractions,  but you can also find the Chicago Children's Museum and a rotating roster of live entertainment on the Family Pavilion Stage."
p905
sg8
S'https://irs0.4sqi.net/img/general/500x300/2439138_QCvB9SkRVvnYMeN8ewVwNfITss0W7Qvjbe1CUDVZ8tU.jpg'
p906
sg10
(lp907
S'Outdoors'
p908
aS'Landmark'
p909
ag13
asg25
S'http://www.navypier.com'
p910
sg14
I1
sg15
S'Navy Pier'
p911
sa(dp912
g2
(lp913
S'Morning'
p914
aS'Afternoon'
p915
asg6
S'See some 1, 200 animals,  from apes to zebras,  at the oldest and one of only a few free zoos left in the country. It is small,  only 35 acres,  but is one of Chicago\xe2\x80\x99s most iconic sites.'
p916
sg8
S'https://irs0.4sqi.net/img/general/500x300/9759363_s73DflcfVcqe1aUpi6MacBV3CUg7iy2EdZn9_1dgyVI.jpg'
p917
sg10
(lp918
S'Outdoors'
p919
ag13
ag13
asg25
S'http://www.lpzoo.org'
p920
sg14
I0
sg15
S'Lincon Park Zoo'
p921
sa(dp922
g2
(lp923
S'Morning'
p924
aS'Afternoon'
p925
asg6
S'A part of the Lincoln Park Conservancy,  the Alfred Caldwell Lily Pool is a refreshing place to rest and escape from the hustle and bustle of the city. The sounds of waterfalls and birds chirping drown out the noisy city life and provide a calming atmosphere.'
p926
sg8
S'https://irs0.4sqi.net/img/general/500x300/uSHQ4lohDpKjnh5EGL-wf9La97Axc6ImBcf3uTeYEE4.jpg'
p927
sg10
(lp928
S'Outdoors'
p929
ag13
ag13
asg25
S'http://chicagoparkdistrict.com'
p930
sg14
I0
sg15
S'Alfred Caldwell Lily Pool'
p931
sa(dp932
g2
(lp933
S'Morning'
p934
aS'Afternoon'
p935
asg6
S'Millennium Park contains a selection of Chicago\xe2\x80\x99s most iconic sights,  ranging from the popular Cloud Gate to the towering Crown Fountain. When the weather is warm,  you can see a free concert at the Frank Gehry\xe2\x80\x93designed Pritzker Pavilion or have a picnic in the heart of the city.'
p936
sg8
S'https://irs0.4sqi.net/img/general/500x300/11869249_MXayHfL0fbUMHZKztKoNNd7jvdn5A6YrIsPauvBkJNE.jpg'
p937
sg10
(lp938
S'Outdoors'
p939
aS'Landmark'
p940
ag13
asg25
g26
sg14
I1
sg15
S'Millenium Park'
p941
sa(dp942
g2
(lp943
S'Morning'
p944
aS'Afternoon'
p945
asg6
S'Take in some amazing views of Lake Michigan along the 18-mile Lakefront Trail. Run,  bike or walk along the path,  which connects attractions like the Museum Campus,  Belmont Harbor,  McCormick Place and most of the city\xe2\x80\x99s beaches.'
p946
sg8
S'https://irs0.4sqi.net/img/general/500x300/552252_am74cxqEufjBBtiKmdFi53WV3tFdBio679FTMV4cJ-s.jpg'
p947
sg10
(lp948
S'Outdoors'
p949
ag13
ag13
asg25
g26
sg14
I0
sg15
S'Lakefront Trail'
p950
sa(dp951
g2
(lp952
S'Morning'
p953
aS'Afternoon'
p954
asg6
S'This video sculpture,  which features a rotating display of local faces,  is located next to many of Chicago\xe2\x80\x99s top attractions in Millennium Park. In the warmer months,  the fountain allows visitors a chance to cool off.'
p955
sg8
S'https://irs0.4sqi.net/img/general/500x300/libWdhA_4s4944Jyn3EHSZaunQPO2EXKZPm5RExBjcU.jpg'
p956
sg10
(lp957
S'Outdoors'
p958
ag13
ag13
asg25
S'http://millenniumpark.org'
p959
sg14
I0
sg15
S'Crown Fountain'
p960
sa(dp961
g2
(lp962
S'Morning'
p963
aS'Afternoon'
p964
asg6
S'Home to the world\xe2\x80\x99s first skyscraper,  Chicago boosts some of the country\xe2\x80\x99s finest architecture. A guided tour down the Chicago River is one of the best ways to learn about the city\xe2\x80\x99s architectural heritage,  with some amazing views.'
p965
sg8
S'https://irs0.4sqi.net/img/general/500x300/306448_qSTPGFx5wA4ZtEfZR4oAXJz-zPN87PysO2cWqkxDSqg.jpg'
p966
sg10
(lp967
S'Outdoors'
p968
ag13
ag13
asg25
g26
sg14
I0
sg15
S'Architecture Boat Tour'
p969
sa(dp970
g2
(lp971
S'Morning'
p972
aS'Afternoon'
p973
asg6
S'Located just north of Michigan Avenue,  this popular summer hotspot offers beach goers chair rentals,  food and beverage options at Oak Street Beach Caf\xc3\xa9,  bike rentals,  volleyball rentals,  restrooms and a spectacular view of the city skyline.'
p974
sg8
S'https://irs0.4sqi.net/img/general/500x300/36442_YzAMg26v_b-9ntFz7LeFC3so7qAxT62f4Y3XaUQHYPM.jpg'
p975
sg10
(lp976
S'Outdoors'
p977
ag13
ag13
asg25
S'http://chicagoparkdistrict.com'
p978
sg14
I0
sg15
S'Oak Street Beach'
p979
sa(dp980
g2
(lp981
S'Night'
p982
ag13
asg6
S" A DJ-driven party scene with bottle service that draws a flashy crowd in Chicago's River North neighborhood."
p983
sg8
S'https://irs0.4sqi.net/img/general/500x300/91125335_ncKImInYEzMCaxJc7cELviS38ezL4bY4ZhFwoEAMCow.jpg'
p984
sg10
(lp985
S'Nightlife'
p986
ag13
ag13
asg25
S'http://studioparisnightclub.com'
p987
sg14
I0
sg15
S'Studio Paris Nightclub'
p988
sa(dp989
g2
(lp990
S'Night'
p991
ag13
asg6
S'A high-energy dueling piano bar in River North.'
p992
sg8
S'https://irs0.4sqi.net/img/general/500x300/3066079_MeT_fneAp1rxhZifLy5RJCSVVf5ec5d9OGlNDIr4Y00.jpg'
p993
sg10
(lp994
S'Nightlife'
p995
ag13
ag13
asg25
S'http://www.howlatthemoon.com'
p996
sg14
I0
sg15
S'Howl at the Moon Piano Bar'
p997
sa(dp998
g2
(lp999
S'Night'
p1000
ag13
asg6
S'Dance club & lounge with DJs spinning a wide selection of tunes'
p1001
sg8
S'http://www.trbimg.com/img-1419893286/turbine/chi-20141225-2014-tribune-photos-of-the-year-p-054/768'
p1002
sg10
(lp1003
S'Nightlife'
p1004
ag13
ag13
asg14
I0
sg15
S'The Apartment Nightclub'
p1005
sa(dp1006
g2
(lp1007
S'Night'
p1008
ag13
asg6
S'Open until 5 a.m. on Fridays and 4 a.m. throughout the rest of the week,  Underground offers late-night dancing to club music.'
p1009
sg8
S'https://irs0.4sqi.net/img/general/500x300/68562906_MPBKoG-FAuQjgBSLglGQGY-HRXGswAVMa1-bdTZkzdI.jpg'
p1010
sg10
(lp1011
S'Nightlife'
p1012
ag13
ag13
asg25
S'http://www.colum.edu'
p1013
sg14
I0
sg15
S'Underground Bar'
p1014
sa(dp1015
g2
(lp1016
S'Night'
p1017
ag13
asg6
S'Seperate from The Signature Room on the 95th floor of the John Hancock Center,  the lounge offers the same spectaular views of Chicago. Along with one of the best views of the city,  it also offers guests signature cocktails,  a gourmet menu and dessert.'
p1018
sg8
S'https://irs0.4sqi.net/img/general/500x300/3266999_4CvuGF9Et7llwnVIdqCw145ONovhL5DHxFvdAkWW0Yw.jpg'
p1019
sg10
(lp1020
S'Nightlife'
p1021
ag13
ag13
asg25
S'http://signatureroom.com'
p1022
sg14
I0
sg15
S'Signature Lounge'
p1023
sa(dp1024
g2
(lp1025
S'Night'
p1026
ag13
asg6
S"This underground club is 'in the heart of the city's nightlife epicenter' in the River North neighborhood. A cross between a club and lounge,  DJs here spin electronic,  techno & house music."
p1027
sg8
S'http://c308991.r91.cf1.rackcdn.com/SiteFiles/Venues/181/46375462p1%20copy.png'
p1028
sg10
(lp1029
S'Nightlife'
p1030
ag13
ag13
asg14
I0
sg15
S'Spy Bar'
p1031
sa(dp1032
g2
(lp1033
S'Night'
p1034
ag13
asg6
S'A multi-level nightclub in River North that has bottle service,  live DJs and stays open late. Offering a mix of ""R&B,  hip\xe2\x80\x91hop"" and ""techno, "" it\'s perfect for clubgoers looking to dance.'
p1035
sg8
S'http://sound-bar.com/wp-content/uploads/corporateparty.jpg'
p1036
sg10
(lp1037
S'Nightlife'
p1038
ag13
ag13
asg14
I0
sg15
S'Sound bar'
p1039
sa(dp1040
g2
(lp1041
S'Night'
p1042
ag13
asg6
S'Open until 4 or 5 a.m.,  this is the perfect upscale late-night spot for clubgoers that features top muscians and DJs.'
p1043
sg8
S'http://c308991.r91.cf1.rackcdn.com/SiteFiles/Venues/3178/82d.jpg'
p1044
sg10
(lp1045
S'Nightlife'
p1046
ag13
ag13
asg14
I0
sg15
S'The Mid'
p1047
sa(dp1048
g2
(lp1049
S'Night'
p1050
ag13
asg6
S'This River North bar takes after a classic speakeasy,  but is anything but quaint. Divided in several different rooms,  the restaurant features craft cocktails,  live music,  secret entrances and doubles as a supper club.'
p1051
sg8
S'https://irs0.4sqi.net/img/general/500x300/414651_GGSnaW7HuU3IJFvf1Q_VTjn5rM4kRWsBaFTdalELnkw.jpg'
p1052
sg10
(lp1053
S'Nightlife'
p1054
ag13
ag13
asg25
g26
sg14
I0
sg15
S'Untitled'
p1055
sa(dp1056
g2
(lp1057
S'Night'
p1058
ag13
asg6
S"Owned and operated by famed chef Grant Achatz,  this swanky West Loop lounge gives some serious attention to cocktails. While it does take walk-ins,  it's better to purchase tickets for a reservation in advance."
p1059
sg8
S'http://www.ronniesuburban.com/photos/food/office/office.11.0624.001.jpg'
p1060
sg10
(lp1061
S'Nightlife'
p1062
ag13
ag13
asg14
I0
sg15
S'The Aviary'
p1063
sa(dp1064
g2
(lp1065
S'Night'
p1066
ag13
asg6
S"Chicago's very own tiki lounge. This River North hot spot features both classic and modern tiki cocktails in a retro Polynesian-island setting."
p1067
sg8
S'http://chicago.seriouseats.com/images/2013/12/20131213-276802-open-thread-best-new-chicago-restaurant-three-dots-and-a-dash-tikiin.jpg'
p1068
sg10
(lp1069
S'Nightlife'
p1070
ag13
ag13
asg14
I0
sg15
S'3 Dots and a Dash'
p1071
sa(dp1072
g2
(lp1073
S'Night'
p1074
ag13
asg6
S"Trendy late-night lounge in Chicago's River North neighborhood with a champagne-centered bar & DJ dancing amid elaborate upscale decor"
p1075
sg8
S'https://irs0.4sqi.net/img/general/500x300/guzMlu-IRlJkB5sk2KHHGWwk7YPbn9hrMKZoVdCN0uE.jpg'
p1076
sg10
(lp1077
S'Nightlife'
p1078
ag13
ag13
asg25
S'http://cuveechicago.com'
p1079
sg14
I0
sg15
S'Cuvee'
p1080
sa(dp1081
g2
(lp1082
S'Morning'
p1083
aS'Afternoon'
p1084
asg6
S'One hundred and three floors above the streets,  visitors can see as far as 50 miles in all directions from the top of the iconic skyscraper. If you\xe2\x80\x99re feeling brave,  step out onto the Ledge\xe2\x80\x94a glass cube suspended from the side of the building that will make you feel like you\xe2\x80\x99re walking on air.'
p1085
sg8
S'https://irs0.4sqi.net/img/general/500x300/280513_dS2V_vYZSyeSMmPTVH5XRO9bni_efKU08EvrPr3MUfI.jpg'
p1086
sg10
(lp1087
S'Landmark'
p1088
ag13
ag13
asg25
S'http://www.willistower.com'
p1089
sg14
I1
sg15
S'Willis Tower'
p1090
sa(dp1091
g2
(lp1092
S'Morning'
p1093
aS'Afternoon'
p1094
asg6
S'Formerly known as the John Hancock Observatory,  360 Chicago offers visitors with a view of up to 55 miles out and four states from 1, 000 feet up on the 94th floor. The Tilt attraction,  which allows visitors to step onto an enclosed platform that extends from the building at a 30 degree angle offers a stomach-dropping view of the street below.'
p1095
sg8
S'https://irs0.4sqi.net/img/general/500x300/83434151_FTAE-FWMfrdMBcJYjcsJUudxO4AbN3uzxigkB65-i1E.jpg'
p1096
sg10
(lp1097
S'Landmark'
p1098
ag13
ag13
asg25
S'http://www.mrhandyman.com/local-handyman-service/il/northern-chicago.aspx'
p1099
sg14
I1
sg15
S'360 Chicago'
p1100
sa(dp1101
g2
(lp1102
S'Afternoon'
p1103
aS'Night'
p1104
asg6
S"With breathtaking architecture and an abundance of cultural attractions,  Chinatown is one of Chicago's most exciting neighborhoods to explore. "
p1105
sg8
S'https://irs0.4sqi.net/img/general/500x300/13044685_Rt0G5rWnH-TqxWP1pBj2CdpQuNZSvQ15b2wYMmiuCHs.jpg'
p1106
sg10
(lp1107
S'Landmark'
p1108
ag13
ag13
asg25
S'http://www.chicagochinatown.org'
p1109
sg14
I0
sg15
S'Chinatown'
p1110
sa.